RCSTM8 COMPILER V2.44.12.199,  MAIN               11/13/12  11:08:04

QCW(0x009A3FE0)

RCSTM8 COMPILER V2.44.12.199, COMPILATION OF MODULE MAIN      
OBJECT MODULE PLACED IN Debug\main.o
COMPILER INVOKED BY: OBJECT(Debug\main.o) PIN(C:\Raisonance\Ride\inc\STM8) PIN(C:\Raisonance\Ride\inc\ST7) PIN(C:\Raisonance\Ride\inc) WRV(0) STM8(SMALL) DEBUG DGC(data) AUTO OT(7,SIZE) PR(Debug\main.lst) CD CO SB INITSTATICVAR LAOB PIN(..\..\..\..\libraries\stm8s_stdperiph_driver\inc) PIN(..\..\inc) DEFINE(STM8AF52Ax) 

stmt level    source
   1          /**
   2            ******************************************************************************
   3            * @file    main.c
   4            * @author  MCD Application Team
   5            * @version V1.0.0
   6            * @date    12-Sept-2012
   7            * @brief   STM8AF demo / main
   8            ******************************************************************************
   9            * @attention
  10            *
  11            * <h2><center>&copy; COPYRIGHT 2012 STMicroelectronics</center></h2>
  12            *
  13            * Licensed under MCD-ST Liberty SW License Agreement V2, (the "License");
  14            * You may not use this file except in compliance with the License.
  15            * You may obtain a copy of the License at:
  16            *
  17            *        http://www.st.com/software_license_agreement_liberty_v2
  18            *
  19            * Unless required by applicable law or agreed to in writing, software
  20            * distributed under the License is distributed on an "AS IS" BASIS,
  21            * WITHOUT WARRANTIES OR CONDITIONS OF ANY KIND, either express or implied.
  22            * See the License for the specific language governing permissions and
  23            * limitations under the License.
  24            *
  25            ******************************************************************************
  26            */
  27          
  28          /* Includes ------------------------------------------------------------------*/
  29          #include "main.h"
  30          #include "stm8s.h"
  31          #include "L99PM62drv.h"
  32          
  33          /* External variables --------------------------------------------------------*/
  34          extern bool StartupCompleted;
  35          
  36          /* External functions --------------------------------------------------------*/
  37          /* lin.c */
  38          extern void LIN_Task (void);
  39          extern void LIN_MasterConfig(void);
  40          extern void InitScheduleTable(void);
  41          /* appli.c */
  42          extern void Appli(void);
  43          
  44          /* Private typedef -----------------------------------------------------------*/
  45          
  46          /* Private defines -----------------------------------------------------------*/
  47          #define TIM4_PERIOD 124
  48          #define L99PM62WdgTriggerRefreshValue10 10
  49          
  50          /* Private macros ------------------------------------------------------------*/
  51          
  52          /* Private variables ---------------------------------------------------------*/
  53          
  54          static __IO uint32_t TimingDelay = 0;
  55          static uint32_t WdgTrigger = 0;
  56          static uint32_t WdgTriggerReload = 0;
  57          
  58          bool ReceptionEnable = FALSE;
  59          
  60          /* Private functions prototypes ----------------------------------------------*/
  61          static void TIM4_Config(void);
  62          static void Delay(u32 nTime);
  63          void TimingDelay_Decrement(void);
  64          static void L99PM62drv_WdgAutoTrigger(u32 WdgAutoTriggerValue);
  65          static void CLK_Config(void);
  66          static void GPIO_Config(void);
  67          
  68          /* Private functions ---------------------------------------------------------*/
  69          
  70          /**
  71            * @brief  Main program.
  72            * @param  None
  73            * @retval None
  74            */
  75          void main(void)
  76          {
  77   1      
  78   1      
  79   1        /* GPIO Configuration ------------------------------------------------------*/
  80   1        GPIO_Config();
  81   1      
  82   1        /* Clock configuration -----------------------------------------------------*/
  83   1        CLK_Config();
  84   1      
  85   1        /* SPI Init (enable communication with L99PM62) ----------------------------*/
  86   1        SPI_DeInit();
  87   1        SPI_Init(SPI_FIRSTBIT_MSB, SPI_BAUDRATEPRESCALER_64, SPI_MODE_MASTER,
  88   1                 SPI_CLOCKPOLARITY_LOW, SPI_CLOCKPHASE_1EDGE,
  89   1                 SPI_DATADIRECTION_2LINES_FULLDUPLEX, SPI_NSS_SOFT, (uint8_t)0x07);
  90   1      
  91   1        /* TIM4 configuration ------------------------------------------------------*/
  92   1        TIM4_Config();
  93   1      
  94   1        /* Enable SPI */
  95   1        SPI_Cmd(ENABLE);
  96   1      
  97   1        /* Enable TIM4 */
  98   1        TIM4_Cmd(ENABLE);
  99   1      
 100   1        /* LIN master demo configuration ---------------------------- */
 101   1      	LIN_MasterConfig();
 102   1        InitScheduleTable();
 103   1      
 104   1        /* Enable Interrupts */
 105   1        enableInterrupts();
 106   1      
 107   1        /* Set 40ms delay before starting communication during
 108   1            L99PM62 long open window -----------------------------*/
 109   1        Delay(40);
 110   1      
 111   1        /* Initialization of L99PM62 CAN/LIN transceiver */
 112   1        L99PM62drv_Init();
 113   1      
 114   1        /* Set Auto Trigger by TIM4 timer tRefresh=10ms ----------------------------*/
 115   1        L99PM62drv_WdgAutoTrigger(L99PM62WdgTriggerRefreshValue10);
 116   1      
 117   1        /* Infinite loop -----------------------------------------------------------*/
 118   1        while (1)
 119   1        {
 120   2          /* Application task */
 121   2          Appli();
 122   2      
 123   2          if (StartupCompleted == TRUE) /* To allow leds display at startup */
 124   2          {
 125   3             LIN_Task();
 126   3          }
 127   2        }
 128   1      
 129   1      }
 130          
 131          /**
 132            * @brief  STM8AF clock controller configuration
 133            * @param  None
 134            * @retval None
 135            */
 136          void CLK_Config(void)
 137          {
 138   1        ErrorStatus status = ERROR;
 139   1      
 140   1        /* HSI Clock divider set to 1 */
 141   1        CLK_HSIPrescalerConfig(CLK_PRESCALER_HSIDIV1);
 142   1      	
 143   1      	/* Enable HSE to run on XTAL : required for LIN master */
 144   1      	status = CLK_ClockSwitchConfig(CLK_SWITCHMODE_AUTO, CLK_SOURCE_HSE,
 145   1                                         DISABLE, CLK_CURRENTCLOCKSTATE_DISABLE);
 146   1      
 147   1      }
 148          
 149          /**
 150            * @brief  GPIO configuration
 151            * @param  None
 152            * @retval None
 153            */
 154          void GPIO_Config(void)
 155          {
 156   1      
 157   1      #ifdef DEBUG
       1        GPIO_Init(GPIOB, (GPIO_Pin_TypeDef)GPIO_PIN_ALL, GPIO_MODE_OUT_PP_LOW_FAST);
       1      #endif
 160   1      
 161   1        /* Init SPI peripheral pins */
 162   1        GPIO_Init(GPIOC, (GPIO_Pin_TypeDef)(GPIO_PIN_5 | GPIO_PIN_6),
 163   1                  GPIO_MODE_OUT_PP_LOW_FAST); /* MOSI + CLK */
 164   1        GPIO_Init(GPIOC, (GPIO_Pin_TypeDef)GPIO_PIN_7,
 165   1                  GPIO_MODE_IN_PU_NO_IT); /* MISO */
 166   1        GPIO_Init(GPIOE, (GPIO_Pin_TypeDef)(GPIO_PIN_5),
 167   1                  GPIO_MODE_OUT_PP_HIGH_FAST); /* CSN */
 168   1      
 169   1        /* Initialize LEDs I/Os in Output Mode */
 170   1        GPIO_Init(GPIOA, (GPIO_Pin_TypeDef)GPIO_PIN_3, GPIO_MODE_OUT_PP_LOW_FAST);
 171   1        GPIO_Init(GPIOD, (GPIO_Pin_TypeDef)GPIO_PIN_3, GPIO_MODE_OUT_PP_LOW_FAST);
 172   1        GPIO_Init(GPIOD, (GPIO_Pin_TypeDef)GPIO_PIN_0, GPIO_MODE_OUT_PP_LOW_FAST);
 173   1        GPIO_Init(GPIOE, (GPIO_Pin_TypeDef)GPIO_PIN_3, GPIO_MODE_OUT_PP_LOW_FAST);
 174   1        GPIO_Init(GPIOC, (GPIO_Pin_TypeDef)GPIO_PIN_3, GPIO_MODE_OUT_PP_LOW_FAST);
 175   1      
 176   1        /* USER1 button init: GPIO set in input interrupt active mode */
 177   1        GPIO_Init( GPIOE, GPIO_PIN_2, GPIO_MODE_IN_FL_IT);
 178   1      
 179   1        /* USER2 button init: GPIO set in input interrupt active mode */
 180   1        GPIO_Init( GPIOE, GPIO_PIN_1, GPIO_MODE_IN_FL_IT);
 181   1      
 182   1        /* User Button 1 & 2 external interrupt sensitivity set to falling edge */
 183   1        EXTI_SetExtIntSensitivity(EXTI_PORT_GPIOE, EXTI_SENSITIVITY_FALL_ONLY);
 184   1      }
 185          
 186          /**
 187            * @brief  TIM4 configuration
 188            * @param  None
 189            * @retval None
 190            */
 191          static void TIM4_Config(void)
 192          {
 193   1        /* TIM4 configuration:
 194   1         - TIM4CLK is set to 16 MHz, the TIM4 Prescaler is equal to 128 so 
 195   1         the TIM1 counter clock used is 16 MHz / 128 = 125 000 Hz
 196   1        - With 125 000 Hz we can generate time base:
 197   1            max time base is 2.048 ms if TIM4_PERIOD = 255 
 198   1             --> (255 + 1) / 125000 = 2.048 ms
 199   1            min time base is 0.016 ms if TIM4_PERIOD = 1 
 200   1             --> (  1 + 1) / 125000 = 0.016 ms
 201   1        - In this example we need to generate a time base equal to 1 ms
 202   1         so TIM4_PERIOD = (0.001 * 125000 - 1) = 124 */
 203   1      
 204   1        /* Time base configuration -------------------------------------------------*/
 205   1        TIM4_TimeBaseInit(TIM4_PRESCALER_128, TIM4_PERIOD);
 206   1      
 207   1        /* Clear TIM4 update flag --------------------------------------------------*/
 208   1        TIM4_ClearFlag(TIM4_FLAG_UPDATE);
 209   1      
 210   1        /* Enable update interrupt -------------------------------------------------*/
 211   1        TIM4_ITConfig(TIM4_IT_UPDATE, ENABLE);
 212   1      
 213   1      }
 214          
 215          /**
 216            * @brief  L99PM62 watchdog trigger
 217            * @param  None
 218            * @retval None
 219            */
 220          void L99PM62drv_WdgAutoTrigger( u32 WdgAutoTriggerValue)
 221          {
 222   1      
 223   1        WdgTrigger = WdgAutoTriggerValue;
 224   1        WdgTriggerReload = WdgAutoTriggerValue;
 225   1      }
 226          
 227          /**
 228            * @brief  L99PM62 watchdog decrement
 229            * @param  None
 230            * @retval None
 231            */
 232          void WdgAutoDecrement(void)
 233          {
 234   1        if (WdgTriggerReload != 0x00)
 235   1        {
 236   2          WdgTrigger--;
 237   2          if (WdgTrigger == 0x00)
 238   2          {
 239   3            L99PM62drv_WdgTrigger();
 240   3            WdgTrigger = WdgTriggerReload;
 241   3            /* Try to reset L99PM62 errors flags every WD refresh sequence */
 242   3            L99PM62drv_ClearStatusRegisters();
 243   3          }
 244   2        }
 245   1      }
 246          
 247          /**
 248            * @brief  Delay Decrement
 249            * @param  None
 250            * @retval None
 251            */
 252          void TimingDelay_Decrement(void)
 253          {
 254   1        if (TimingDelay != 0x00)
 255   1        {
 256   2          TimingDelay--;
 257   2        }
 258   1      }
 259          
 260          /**
 261            * @brief  Delay function
 262            * @param  None
 263            * @retval None
 264            */
 265          void Delay(u32 nTime)
 266          {
 267   1        TimingDelay = nTime;
 268   1      
 269   1        while (TimingDelay != 0);
 270   1      }
 271          
 272          #ifdef USE_FULL_ASSERT
 273          /**
 274            * @brief  Reports the name of the source file and the source line number
 275            *   where the assert_param error has occurred.
 276            * @param file: pointer to the source file name
 277            * @param line: assert_param error line source number
 278            * @retval None
 279            */
 280          void assert_failed(uint8_t* file, uint32_t line)
 281          {
 282   1        /* User can add his own implementation to report the file name and line number,
 283   1           ex: printf("Wrong parameters value: file %s on line %d\r\n", file, line) */
 284   1      
 285   1        /* Infinite loop */
 286   1        while (1)
 287   1        {}
 288   1      }

*** WARNING C092 IN LINE 280 OF ..\..\src\main.c : 'file' is declared but not used

*** WARNING C092 IN LINE 280 OF ..\..\src\main.c : 'line' is declared but not used
 289          #endif
 290          
 291          
 292          /************************ (C) COPYRIGHT STMicroelectronics *****END OF FILE****/
 293          
RCSTM8 COMPILER V2.44.12.199
ASSEMBLY LISTING OF GENERATED OBJECT CODE

              ; FUNCTION main (BEGIN)
              ; SOURCE LINE # 80 
0000 CD0000     F                      CALL   ?GPIO_Config?MAIN?S
              ; SOURCE LINE # 83 
0003 CD0000     F                      CALL   ?CLK_Config?MAIN?S
              ; SOURCE LINE # 86 
0006 CD0000     F                      CALL   ?SPI_DeInit
              ; SOURCE LINE # 89 
0009 4B07                              PUSH   #007H
000B AE0002                            LDW    X,#00002H
000E 89                                PUSHW  X
000F 5F                                CLRW   X
0010 89                                PUSHW  X
0011 89                                PUSHW  X
0012 89                                PUSHW  X
0013 AE0004                            LDW    X,#00004H
0016 89                                PUSHW  X
0017 AE0028                            LDW    X,#00028H
001A 89                                PUSHW  X
001B 5F                                CLRW   X
001C CD0000     F                      CALL   ?SPI_Init
001F 5B0D                              ADD    SP,#00DH
              ; SOURCE LINE # 92 
0021 CD0000     F                      CALL   ?TIM4_Config?MAIN?S
              ; SOURCE LINE # 95 
0024 5F                                CLRW   X
0025 5C                                INCW   X
0026 CD0000     F                      CALL   ?SPI_Cmd
              ; SOURCE LINE # 98 
0029 5F                                CLRW   X
002A 5C                                INCW   X
002B CD0000     F                      CALL   ?TIM4_Cmd
              ; SOURCE LINE # 101 
002E CD0000     F                      CALL   ?LIN_MasterConfig
              ; SOURCE LINE # 102 
0031 CD0000     F                      CALL   ?InitScheduleTable
              ; SOURCE LINE # 105 
0034 9A                                RIM    
              ; SOURCE LINE # 109 
0035 CD0000     F DNF            M(04)  CALL  ?C?mv4_pg2sk1
0038         ?DATASTART_0002:
0038 28                             M  DB     028H
0039         ?DATAEND_0002:
0039 CD0000     F                      CALL   ?Delay?MAIN?S
003C 5B04                              ADD    SP,#004H
              ; SOURCE LINE # 112 
003E CD0000     F                      CALL   ?L99PM62drv_Init
              ; SOURCE LINE # 115 
0041 CD0000     F DNF            M(04)  CALL  ?C?mv4_pg2sk1
0044         ?DATASTART_0003:
0044 0A                             M  DB     00AH
0045         ?DATAEND_0003:
0045 CD0000     F                      CALL   ?L99PM62drv_WdgAutoTrigger?MAIN?S
0048 5B04                              ADD    SP,#004H
004A         ?WHILE_0001:
              ; SOURCE LINE # 121 
004A CD0000     F                      CALL   ?Appli
              ; SOURCE LINE # 123 
004D 5F                                CLRW   X
004E 5C                                INCW   X
004F C30000     F                      CPW    X,StartupCompleted
0052 26F6                              JRNE   ?WHILE_0001
              ; SOURCE LINE # 125 
0054 CD0000     F                      CALL   ?LIN_Task
0057 20F1                              JRA    ?WHILE_0001

              ; FUNCTION main (END)

              ; FUNCTION ?CLK_Config (BEGIN)
              ; SOURCE LINE # 138 
0000 5F                                CLRW   X
0001 89                                PUSHW  X
              ; SOURCE LINE # 141 
0002 CD0000     F                      CALL   ?CLK_HSIPrescalerConfig
              ; SOURCE LINE # 145 
0005 5F                                CLRW   X
0006 89                                PUSHW  X
0007 89                                PUSHW  X
0008 AE00B4                            LDW    X,#000B4H
000B 89                                PUSHW  X
000C 5F                                CLRW   X
000D 5C                                INCW   X
000E CD0000     F                      CALL   ?CLK_ClockSwitchConfig
0011 5B06                              ADD    SP,#006H
              ; SOURCE LINE # 147 
0013 85                                POPW   X
0014 81                                RET    
              ; status       (size=2). Automatic variable  in AUTO

              ; FUNCTION ?CLK_Config (END)

              ; FUNCTION ?GPIO_Config (BEGIN)
              ; SOURCE LINE # 163 
0000 AE00E0                            LDW    X,#000E0H
0003 89                                PUSHW  X
0004 AE0060                            LDW    X,#00060H
0007 89                                PUSHW  X
0008 AE500A                            LDW    X,#0500AH
000B CD0000     F                      CALL   ?GPIO_Init
000E 5B04                              ADD    SP,#004H
              ; SOURCE LINE # 165 
0010 AE0040                            LDW    X,#00040H
0013 89                                PUSHW  X
0014 AE0080                            LDW    X,#00080H
0017 89                                PUSHW  X
0018 AE500A                            LDW    X,#0500AH
001B CD0000     F                      CALL   ?GPIO_Init
001E 5B04                              ADD    SP,#004H
              ; SOURCE LINE # 167 
0020 AE00F0                            LDW    X,#000F0H
0023 89                                PUSHW  X
0024 AE0020                            LDW    X,#00020H
0027 89                                PUSHW  X
0028 AE5014                            LDW    X,#05014H
002B CD0000     F                      CALL   ?GPIO_Init
002E 5B04                              ADD    SP,#004H
              ; SOURCE LINE # 170 
0030 AE00E0                            LDW    X,#000E0H
0033 89                                PUSHW  X
0034 AE0008                            LDW    X,#00008H
0037 89                                PUSHW  X
0038 AE5000                            LDW    X,#05000H
003B CD0000     F                      CALL   ?GPIO_Init
003E 5B04                              ADD    SP,#004H
              ; SOURCE LINE # 171 
0040 AE00E0                            LDW    X,#000E0H
0043 89                                PUSHW  X
0044 AE0008                            LDW    X,#00008H
0047 89                                PUSHW  X
0048 AE500F                            LDW    X,#0500FH
004B CD0000     F                      CALL   ?GPIO_Init
004E 5B04                              ADD    SP,#004H
              ; SOURCE LINE # 172 
0050 AE00E0                            LDW    X,#000E0H
0053 89                                PUSHW  X
0054 5F                                CLRW   X
0055 5C                                INCW   X
0056 89                                PUSHW  X
0057 AE500F                            LDW    X,#0500FH
005A CD0000     F                      CALL   ?GPIO_Init
005D 5B04                              ADD    SP,#004H
              ; SOURCE LINE # 173 
005F AE00E0                            LDW    X,#000E0H
0062 89                                PUSHW  X
0063 AE0008                            LDW    X,#00008H
0066 89                                PUSHW  X
0067 AE5014                            LDW    X,#05014H
006A CD0000     F                      CALL   ?GPIO_Init
006D 5B04                              ADD    SP,#004H
              ; SOURCE LINE # 174 
006F AE00E0                            LDW    X,#000E0H
0072 89                                PUSHW  X
0073 AE0008                            LDW    X,#00008H
0076 89                                PUSHW  X
0077 AE500A                            LDW    X,#0500AH
007A CD0000     F                      CALL   ?GPIO_Init
007D 5B04                              ADD    SP,#004H
              ; SOURCE LINE # 177 
007F AE0020                            LDW    X,#00020H
0082 89                                PUSHW  X
0083 AE0004                            LDW    X,#00004H
0086 89                                PUSHW  X
0087 AE5014                            LDW    X,#05014H
008A CD0000     F                      CALL   ?GPIO_Init
008D 5B04                              ADD    SP,#004H
              ; SOURCE LINE # 180 
008F AE0020                            LDW    X,#00020H
0092 89                                PUSHW  X
0093 AE0002                            LDW    X,#00002H
0096 89                                PUSHW  X
0097 AE5014                            LDW    X,#05014H
009A CD0000     F                      CALL   ?GPIO_Init
009D 5B04                              ADD    SP,#004H
              ; SOURCE LINE # 183 
009F AE0002                            LDW    X,#00002H
00A2 89                                PUSHW  X
00A3 AE0004                            LDW    X,#00004H
00A6 CD0000     F                      CALL   ?EXTI_SetExtIntSensitivity
00A9 85                                POPW   X
              ; SOURCE LINE # 184 
00AA 81                                RET    

              ; FUNCTION ?GPIO_Config (END)

              ; FUNCTION ?TIM4_Config?MAIN?S (BEGIN)
              ; SOURCE LINE # 205 
0000 A67C                              LD     A,#07CH
0002 AE0007                            LDW    X,#00007H
0005 CD0000     F                      CALL   ?TIM4_TimeBaseInit
              ; SOURCE LINE # 208 
0008 5F                                CLRW   X
0009 5C                                INCW   X
000A CD0000     F                      CALL   ?TIM4_ClearFlag
              ; SOURCE LINE # 211 
000D 5F                                CLRW   X
000E 5C                                INCW   X
000F 89                                PUSHW  X
0010 CD0000     F                      CALL   ?TIM4_ITConfig
0013 85                                POPW   X
              ; SOURCE LINE # 213 
0014 81                                RET    

              ; FUNCTION ?TIM4_Config?MAIN?S (END)

              ; FUNCTION ?L99PM62drv_WdgAutoTrigger (BEGIN)
              ; SOURCE LINE # 223 
0000 1E03       F                      LDW    X,(003H,SP)   ; [ WdgAutoTriggerValue ]
0002 CF0000     F                      LDW    WdgTrigger,X
0005 1E05       F                      LDW    X,(005H,SP)   ; [ WdgAutoTriggerValue + 02H ]
0007 CF0000     F                      LDW    WdgTrigger + 02H,X
              ; SOURCE LINE # 224 
000A 1E03       F                      LDW    X,(003H,SP)   ; [ WdgAutoTriggerValue ]
000C CF0000     F                      LDW    WdgTriggerReload,X
000F 1E05       F                      LDW    X,(005H,SP)   ; [ WdgAutoTriggerValue + 02H ]
0011 CF0000     F                      LDW    WdgTriggerReload + 02H,X
              ; SOURCE LINE # 225 
0014 81                                RET    
              ; WdgAutoTriggerValue unsigned long  (size=4-Alg).  parameter in AUTO

              ; FUNCTION ?L99PM62drv_WdgAutoTrigger (END)

              ; FUNCTION ?WdgAutoDecrement (BEGIN)
              ; SOURCE LINE # 234 
0000 CE0000     F                      LDW    X,WdgTriggerReload + 02H
0003 2605                              JRNE   ?NXT_0008
0005 CE0000     F                      LDW    X,WdgTriggerReload
0008 2724                              JREQ   ?EPILOG_0005
000A         ?NXT_0008:
              ; SOURCE LINE # 236 
000A AE0000     F                      LDW    X,#HIGH(WdgTrigger)
000D A6FF                              LD     A,#0FFH
000F CD0000     F                      CALL   ?C?accix328
              ; SOURCE LINE # 237 
0012 CE0000     F                      LDW    X,WdgTrigger + 02H
0015 2617                              JRNE   ?EPILOG_0005
0017 CE0000     F                      LDW    X,WdgTrigger
001A 2612                              JRNE   ?EPILOG_0005
              ; SOURCE LINE # 239 
001C CD0000     F                      CALL   ?L99PM62drv_WdgTrigger
              ; SOURCE LINE # 240 
001F CE0000     F                      LDW    X,WdgTriggerReload
0022 CF0000     F                      LDW    WdgTrigger,X
0025 CE0000     F                      LDW    X,WdgTriggerReload + 02H
0028 CF0000     F                      LDW    WdgTrigger + 02H,X
              ; SOURCE LINE # 242 
002B CC0000     F                      JP     ?L99PM62drv_ClearStatusRegisters
002E         ?EPILOG_0005:
              ; SOURCE LINE # 245 
002E 81                                RET    

              ; FUNCTION ?WdgAutoDecrement (END)

              ; FUNCTION ?TimingDelay_Decrement (BEGIN)
              ; SOURCE LINE # 254 
0000 CE0000     F                      LDW    X,TimingDelay + 02H
0003 2605                              JRNE   ?NXT_0013
0005 CE0000     F                      LDW    X,TimingDelay
0008 2708                              JREQ   ?EPILOG_0006
000A         ?NXT_0013:
              ; SOURCE LINE # 256 
000A AE0000     F                      LDW    X,#HIGH(TimingDelay)
000D A6FF                              LD     A,#0FFH
000F CC0000     F                      JP     ?C?accix328
0012         ?EPILOG_0006:
              ; SOURCE LINE # 258 
0012 81                                RET    

              ; FUNCTION ?TimingDelay_Decrement (END)

              ; FUNCTION ?Delay (BEGIN)
              ; SOURCE LINE # 267 
0000 1E03       F                      LDW    X,(003H,SP)   ; [ nTime ]
0002 CF0000     F                      LDW    TimingDelay,X
0005 1E05       F                      LDW    X,(005H,SP)   ; [ nTime + 02H ]
0007 CF0000     F                      LDW    TimingDelay + 02H,X
000A         ?WHILE_0003:
              ; SOURCE LINE # 269 
000A CE0000     F                      LDW    X,TimingDelay + 02H
000D 26FB                              JRNE   ?WHILE_0003
000F CE0000     F                      LDW    X,TimingDelay
0012 26F6                              JRNE   ?WHILE_0003
              ; SOURCE LINE # 270 
0014 81                                RET    
              ; nTime        unsigned long  (size=4-Alg).  parameter in AUTO

              ; FUNCTION ?Delay (END)

              ; FUNCTION ?assert_failed (BEGIN)
0000         ?WHILE_0005:
              ; SOURCE LINE # 287 
0000 20FE                              JRA    ?WHILE_0005
              ; file         pointer to (unsigned char   in )(size=2). Register parameter(XW) in AUTO
              ; line         unsigned long  (size=4-Alg).  parameter in AUTO

              ; FUNCTION ?assert_failed (END)

RCSTM8 COMPILER V2.44.12.199
NAME                                    CLASS   MSPACE  TYPE    OFFSET  SIZE
====                                    =====   ======  ====    ======  ====

int8_t . . . . . . . . . . . . . . . .  TYPEDEF ------- ????? -------      1
int16_t. . . . . . . . . . . . . . . .  TYPEDEF ------- INT      -------     2
int32_t. . . . . . . . . . . . . . . .  TYPEDEF ------- LONG     -------     4
uint8_t. . . . . . . . . . . . . . . .  TYPEDEF ------- U_CHAR  -------     1
uint16_t . . . . . . . . . . . . . . .  TYPEDEF ------- U_CHAR  -------     2
uint32_t . . . . . . . . . . . . . . .  TYPEDEF ------- ????? -------      4
s32. . . . . . . . . . . . . . . . . .  TYPEDEF ------- LONG     -------     4
s16. . . . . . . . . . . . . . . . . .  TYPEDEF ------- INT      -------     2
s8 . . . . . . . . . . . . . . . . . .  TYPEDEF ------- ????? -------      1
u32. . . . . . . . . . . . . . . . . .  TYPEDEF ------- ????? -------      4
u16. . . . . . . . . . . . . . . . . .  TYPEDEF ------- U_CHAR  -------     2
u8 . . . . . . . . . . . . . . . . . .  TYPEDEF ------- U_CHAR  -------     1
FALSE. . . . . . . . . . . . . . . . . E_CONST  ----- INT      -------  2
TRUE . . . . . . . . . . . . . . . . . E_CONST  ----- INT      -------  2
bool . . . . . . . . . . . . . . . . .  TYPEDEF ------- INT   -------     2
RESET. . . . . . . . . . . . . . . . . E_CONST  ----- INT      -------  2
SET. . . . . . . . . . . . . . . . . . E_CONST  ----- INT      -------  2
FlagStatus . . . . . . . . . . . . . .  TYPEDEF ------- INT   -------     2
ITStatus . . . . . . . . . . . . . . .  TYPEDEF ------- INT   -------     2
BitStatus. . . . . . . . . . . . . . .  TYPEDEF ------- INT   -------     2
BitAction. . . . . . . . . . . . . . .  TYPEDEF ------- INT   -------     2
DISABLE. . . . . . . . . . . . . . . . E_CONST  ----- INT      -------  2
ENABLE . . . . . . . . . . . . . . . . E_CONST  ----- INT      -------  2
FunctionalState. . . . . . . . . . . .  TYPEDEF ------- INT   -------     2
ERROR. . . . . . . . . . . . . . . . . E_CONST  ----- INT      -------  2
SUCCESS. . . . . . . . . . . . . . . . E_CONST  ----- INT      -------  2
ErrorStatus. . . . . . . . . . . . . .  TYPEDEF ------- INT   -------     2
GPIO_struct. . . . . . . . . . . . . . * TAG *  ----- STRUCT  -------     5
  ODR. . . . . . . . . . . . . . . . .  MEMBER  -----   U_CHAR  000000H     1
  IDR. . . . . . . . . . . . . . . . .  MEMBER  -----   U_CHAR  000001H     1
  DDR. . . . . . . . . . . . . . . . .  MEMBER  -----   U_CHAR  000002H     1
  CR1. . . . . . . . . . . . . . . . .  MEMBER  -----   U_CHAR  000003H     1
  CR2. . . . . . . . . . . . . . . . .  MEMBER  -----   U_CHAR  000004H     1
GPIO_TypeDef . . . . . . . . . . . . .  TYPEDEF ------- STRUCT   -------     5
  ODR. . . . . . . . . . . . . . . . .  MEMBER  -----   U_CHAR  000000H     1
  IDR. . . . . . . . . . . . . . . . .  MEMBER  -----   U_CHAR  000001H     1
  DDR. . . . . . . . . . . . . . . . .  MEMBER  -----   U_CHAR  000002H     1
  CR1. . . . . . . . . . . . . . . . .  MEMBER  -----   U_CHAR  000003H     1
  CR2. . . . . . . . . . . . . . . . .  MEMBER  -----   U_CHAR  000004H     1
ADC2_struct. . . . . . . . . . . . . . * TAG *  ----- STRUCT  -------     8
  CSR. . . . . . . . . . . . . . . . .  MEMBER  -----   U_CHAR  000000H     1
  CR1. . . . . . . . . . . . . . . . .  MEMBER  -----   U_CHAR  000001H     1
  CR2. . . . . . . . . . . . . . . . .  MEMBER  -----   U_CHAR  000002H     1
  RESERVED . . . . . . . . . . . . . .  MEMBER  -----   U_CHAR  000003H     1
  DRH. . . . . . . . . . . . . . . . .  MEMBER  -----   U_CHAR  000004H     1
  DRL. . . . . . . . . . . . . . . . .  MEMBER  -----   U_CHAR  000005H     1
  TDRH . . . . . . . . . . . . . . . .  MEMBER  -----   U_CHAR  000006H     1
  TDRL . . . . . . . . . . . . . . . .  MEMBER  -----   U_CHAR  000007H     1
ADC2_TypeDef . . . . . . . . . . . . .  TYPEDEF ------- STRUCT   -------     8
  CSR. . . . . . . . . . . . . . . . .  MEMBER  -----   U_CHAR  000000H     1
  CR1. . . . . . . . . . . . . . . . .  MEMBER  -----   U_CHAR  000001H     1
  CR2. . . . . . . . . . . . . . . . .  MEMBER  -----   U_CHAR  000002H     1
  RESERVED . . . . . . . . . . . . . .  MEMBER  -----   U_CHAR  000003H     1
  DRH. . . . . . . . . . . . . . . . .  MEMBER  -----   U_CHAR  000004H     1
  DRL. . . . . . . . . . . . . . . . .  MEMBER  -----   U_CHAR  000005H     1
  TDRH . . . . . . . . . . . . . . . .  MEMBER  -----   U_CHAR  000006H     1
  TDRL . . . . . . . . . . . . . . . .  MEMBER  -----   U_CHAR  000007H     1
AWU_struct . . . . . . . . . . . . . . * TAG *  ----- STRUCT  -------     3
  CSR. . . . . . . . . . . . . . . . .  MEMBER  -----   U_CHAR  000000H     1
  APR. . . . . . . . . . . . . . . . .  MEMBER  -----   U_CHAR  000001H     1
  TBR. . . . . . . . . . . . . . . . .  MEMBER  -----   U_CHAR  000002H     1
AWU_TypeDef. . . . . . . . . . . . . .  TYPEDEF ------- STRUCT   -------     3
  CSR. . . . . . . . . . . . . . . . .  MEMBER  -----   U_CHAR  000000H     1
  APR. . . . . . . . . . . . . . . . .  MEMBER  -----   U_CHAR  000001H     1
  TBR. . . . . . . . . . . . . . . . .  MEMBER  -----   U_CHAR  000002H     1
BEEP_struct. . . . . . . . . . . . . . * TAG *  ----- STRUCT  -------     1
  CSR. . . . . . . . . . . . . . . . .  MEMBER  -----   U_CHAR  000000H     1
BEEP_TypeDef . . . . . . . . . . . . .  TYPEDEF ------- STRUCT   -------     1
  CSR. . . . . . . . . . . . . . . . .  MEMBER  -----   U_CHAR  000000H     1
CLK_struct . . . . . . . . . . . . . . * TAG *  ----- STRUCT  -------    14
  ICKR . . . . . . . . . . . . . . . .  MEMBER  -----   U_CHAR  000000H     1
  ECKR . . . . . . . . . . . . . . . .  MEMBER  -----   U_CHAR  000001H     1
  RESERVED . . . . . . . . . . . . . .  MEMBER  -----   U_CHAR  000002H     1
  CMSR . . . . . . . . . . . . . . . .  MEMBER  -----   U_CHAR  000003H     1
  SWR. . . . . . . . . . . . . . . . .  MEMBER  -----   U_CHAR  000004H     1
  SWCR . . . . . . . . . . . . . . . .  MEMBER  -----   U_CHAR  000005H     1
  CKDIVR . . . . . . . . . . . . . . .  MEMBER  -----   U_CHAR  000006H     1
  PCKENR1. . . . . . . . . . . . . . .  MEMBER  -----   U_CHAR  000007H     1
  CSSR . . . . . . . . . . . . . . . .  MEMBER  -----   U_CHAR  000008H     1
  CCOR . . . . . . . . . . . . . . . .  MEMBER  -----   U_CHAR  000009H     1
  PCKENR2. . . . . . . . . . . . . . .  MEMBER  -----   U_CHAR  00000AH     1
  RESERVED1. . . . . . . . . . . . . .  MEMBER  -----   U_CHAR  00000BH     1
  HSITRIMR . . . . . . . . . . . . . .  MEMBER  -----   U_CHAR  00000CH     1
  SWIMCCR. . . . . . . . . . . . . . .  MEMBER  -----   U_CHAR  00000DH     1
CLK_TypeDef. . . . . . . . . . . . . .  TYPEDEF ------- STRUCT   -------    14
  ICKR . . . . . . . . . . . . . . . .  MEMBER  -----   U_CHAR  000000H     1
  ECKR . . . . . . . . . . . . . . . .  MEMBER  -----   U_CHAR  000001H     1
  RESERVED . . . . . . . . . . . . . .  MEMBER  -----   U_CHAR  000002H     1
  CMSR . . . . . . . . . . . . . . . .  MEMBER  -----   U_CHAR  000003H     1
  SWR. . . . . . . . . . . . . . . . .  MEMBER  -----   U_CHAR  000004H     1
  SWCR . . . . . . . . . . . . . . . .  MEMBER  -----   U_CHAR  000005H     1
  CKDIVR . . . . . . . . . . . . . . .  MEMBER  -----   U_CHAR  000006H     1
  PCKENR1. . . . . . . . . . . . . . .  MEMBER  -----   U_CHAR  000007H     1
  CSSR . . . . . . . . . . . . . . . .  MEMBER  -----   U_CHAR  000008H     1
  CCOR . . . . . . . . . . . . . . . .  MEMBER  -----   U_CHAR  000009H     1
  PCKENR2. . . . . . . . . . . . . . .  MEMBER  -----   U_CHAR  00000AH     1
  RESERVED1. . . . . . . . . . . . . .  MEMBER  -----   U_CHAR  00000BH     1
  HSITRIMR . . . . . . . . . . . . . .  MEMBER  -----   U_CHAR  00000CH     1
  SWIMCCR. . . . . . . . . . . . . . .  MEMBER  -----   U_CHAR  00000DH     1
TIM1_struct. . . . . . . . . . . . . . * TAG *  ----- STRUCT  -------    32
  CR1. . . . . . . . . . . . . . . . .  MEMBER  -----   U_CHAR  000000H     1
  CR2. . . . . . . . . . . . . . . . .  MEMBER  -----   U_CHAR  000001H     1
  SMCR . . . . . . . . . . . . . . . .  MEMBER  -----   U_CHAR  000002H     1
  ETR. . . . . . . . . . . . . . . . .  MEMBER  -----   U_CHAR  000003H     1
  IER. . . . . . . . . . . . . . . . .  MEMBER  -----   U_CHAR  000004H     1
  SR1. . . . . . . . . . . . . . . . .  MEMBER  -----   U_CHAR  000005H     1
  SR2. . . . . . . . . . . . . . . . .  MEMBER  -----   U_CHAR  000006H     1
  EGR. . . . . . . . . . . . . . . . .  MEMBER  -----   U_CHAR  000007H     1
  CCMR1. . . . . . . . . . . . . . . .  MEMBER  -----   U_CHAR  000008H     1
  CCMR2. . . . . . . . . . . . . . . .  MEMBER  -----   U_CHAR  000009H     1
  CCMR3. . . . . . . . . . . . . . . .  MEMBER  -----   U_CHAR  00000AH     1
  CCMR4. . . . . . . . . . . . . . . .  MEMBER  -----   U_CHAR  00000BH     1
  CCER1. . . . . . . . . . . . . . . .  MEMBER  -----   U_CHAR  00000CH     1
  CCER2. . . . . . . . . . . . . . . .  MEMBER  -----   U_CHAR  00000DH     1
  CNTRH. . . . . . . . . . . . . . . .  MEMBER  -----   U_CHAR  00000EH     1
  CNTRL. . . . . . . . . . . . . . . .  MEMBER  -----   U_CHAR  00000FH     1
  PSCRH. . . . . . . . . . . . . . . .  MEMBER  -----   U_CHAR  000010H     1
  PSCRL. . . . . . . . . . . . . . . .  MEMBER  -----   U_CHAR  000011H     1
  ARRH . . . . . . . . . . . . . . . .  MEMBER  -----   U_CHAR  000012H     1
  ARRL . . . . . . . . . . . . . . . .  MEMBER  -----   U_CHAR  000013H     1
  RCR. . . . . . . . . . . . . . . . .  MEMBER  -----   U_CHAR  000014H     1
  CCR1H. . . . . . . . . . . . . . . .  MEMBER  -----   U_CHAR  000015H     1
  CCR1L. . . . . . . . . . . . . . . .  MEMBER  -----   U_CHAR  000016H     1
  CCR2H. . . . . . . . . . . . . . . .  MEMBER  -----   U_CHAR  000017H     1
  CCR2L. . . . . . . . . . . . . . . .  MEMBER  -----   U_CHAR  000018H     1
  CCR3H. . . . . . . . . . . . . . . .  MEMBER  -----   U_CHAR  000019H     1
  CCR3L. . . . . . . . . . . . . . . .  MEMBER  -----   U_CHAR  00001AH     1
  CCR4H. . . . . . . . . . . . . . . .  MEMBER  -----   U_CHAR  00001BH     1
  CCR4L. . . . . . . . . . . . . . . .  MEMBER  -----   U_CHAR  00001CH     1
  BKR. . . . . . . . . . . . . . . . .  MEMBER  -----   U_CHAR  00001DH     1
  DTR. . . . . . . . . . . . . . . . .  MEMBER  -----   U_CHAR  00001EH     1
  OISR . . . . . . . . . . . . . . . .  MEMBER  -----   U_CHAR  00001FH     1
TIM1_TypeDef . . . . . . . . . . . . .  TYPEDEF ------- STRUCT   -------    32
  CR1. . . . . . . . . . . . . . . . .  MEMBER  -----   U_CHAR  000000H     1
  CR2. . . . . . . . . . . . . . . . .  MEMBER  -----   U_CHAR  000001H     1
  SMCR . . . . . . . . . . . . . . . .  MEMBER  -----   U_CHAR  000002H     1
  ETR. . . . . . . . . . . . . . . . .  MEMBER  -----   U_CHAR  000003H     1
  IER. . . . . . . . . . . . . . . . .  MEMBER  -----   U_CHAR  000004H     1
  SR1. . . . . . . . . . . . . . . . .  MEMBER  -----   U_CHAR  000005H     1
  SR2. . . . . . . . . . . . . . . . .  MEMBER  -----   U_CHAR  000006H     1
  EGR. . . . . . . . . . . . . . . . .  MEMBER  -----   U_CHAR  000007H     1
  CCMR1. . . . . . . . . . . . . . . .  MEMBER  -----   U_CHAR  000008H     1
  CCMR2. . . . . . . . . . . . . . . .  MEMBER  -----   U_CHAR  000009H     1
  CCMR3. . . . . . . . . . . . . . . .  MEMBER  -----   U_CHAR  00000AH     1
  CCMR4. . . . . . . . . . . . . . . .  MEMBER  -----   U_CHAR  00000BH     1
  CCER1. . . . . . . . . . . . . . . .  MEMBER  -----   U_CHAR  00000CH     1
  CCER2. . . . . . . . . . . . . . . .  MEMBER  -----   U_CHAR  00000DH     1
  CNTRH. . . . . . . . . . . . . . . .  MEMBER  -----   U_CHAR  00000EH     1
  CNTRL. . . . . . . . . . . . . . . .  MEMBER  -----   U_CHAR  00000FH     1
  PSCRH. . . . . . . . . . . . . . . .  MEMBER  -----   U_CHAR  000010H     1
  PSCRL. . . . . . . . . . . . . . . .  MEMBER  -----   U_CHAR  000011H     1
  ARRH . . . . . . . . . . . . . . . .  MEMBER  -----   U_CHAR  000012H     1
  ARRL . . . . . . . . . . . . . . . .  MEMBER  -----   U_CHAR  000013H     1
  RCR. . . . . . . . . . . . . . . . .  MEMBER  -----   U_CHAR  000014H     1
  CCR1H. . . . . . . . . . . . . . . .  MEMBER  -----   U_CHAR  000015H     1
  CCR1L. . . . . . . . . . . . . . . .  MEMBER  -----   U_CHAR  000016H     1
  CCR2H. . . . . . . . . . . . . . . .  MEMBER  -----   U_CHAR  000017H     1
  CCR2L. . . . . . . . . . . . . . . .  MEMBER  -----   U_CHAR  000018H     1
  CCR3H. . . . . . . . . . . . . . . .  MEMBER  -----   U_CHAR  000019H     1
  CCR3L. . . . . . . . . . . . . . . .  MEMBER  -----   U_CHAR  00001AH     1
  CCR4H. . . . . . . . . . . . . . . .  MEMBER  -----   U_CHAR  00001BH     1
  CCR4L. . . . . . . . . . . . . . . .  MEMBER  -----   U_CHAR  00001CH     1
  BKR. . . . . . . . . . . . . . . . .  MEMBER  -----   U_CHAR  00001DH     1
  DTR. . . . . . . . . . . . . . . . .  MEMBER  -----   U_CHAR  00001EH     1
  OISR . . . . . . . . . . . . . . . .  MEMBER  -----   U_CHAR  00001FH     1
TIM2_struct. . . . . . . . . . . . . . * TAG *  ----- STRUCT  -------    21
  CR1. . . . . . . . . . . . . . . . .  MEMBER  -----   U_CHAR  000000H     1
  IER. . . . . . . . . . . . . . . . .  MEMBER  -----   U_CHAR  000001H     1
  SR1. . . . . . . . . . . . . . . . .  MEMBER  -----   U_CHAR  000002H     1
  SR2. . . . . . . . . . . . . . . . .  MEMBER  -----   U_CHAR  000003H     1
  EGR. . . . . . . . . . . . . . . . .  MEMBER  -----   U_CHAR  000004H     1
  CCMR1. . . . . . . . . . . . . . . .  MEMBER  -----   U_CHAR  000005H     1
  CCMR2. . . . . . . . . . . . . . . .  MEMBER  -----   U_CHAR  000006H     1
  CCMR3. . . . . . . . . . . . . . . .  MEMBER  -----   U_CHAR  000007H     1
  CCER1. . . . . . . . . . . . . . . .  MEMBER  -----   U_CHAR  000008H     1
  CCER2. . . . . . . . . . . . . . . .  MEMBER  -----   U_CHAR  000009H     1
  CNTRH. . . . . . . . . . . . . . . .  MEMBER  -----   U_CHAR  00000AH     1
  CNTRL. . . . . . . . . . . . . . . .  MEMBER  -----   U_CHAR  00000BH     1
  PSCR . . . . . . . . . . . . . . . .  MEMBER  -----   U_CHAR  00000CH     1
  ARRH . . . . . . . . . . . . . . . .  MEMBER  -----   U_CHAR  00000DH     1
  ARRL . . . . . . . . . . . . . . . .  MEMBER  -----   U_CHAR  00000EH     1
  CCR1H. . . . . . . . . . . . . . . .  MEMBER  -----   U_CHAR  00000FH     1
  CCR1L. . . . . . . . . . . . . . . .  MEMBER  -----   U_CHAR  000010H     1
  CCR2H. . . . . . . . . . . . . . . .  MEMBER  -----   U_CHAR  000011H     1
  CCR2L. . . . . . . . . . . . . . . .  MEMBER  -----   U_CHAR  000012H     1
  CCR3H. . . . . . . . . . . . . . . .  MEMBER  -----   U_CHAR  000013H     1
  CCR3L. . . . . . . . . . . . . . . .  MEMBER  -----   U_CHAR  000014H     1
TIM2_TypeDef . . . . . . . . . . . . .  TYPEDEF ------- STRUCT   -------    21
  CR1. . . . . . . . . . . . . . . . .  MEMBER  -----   U_CHAR  000000H     1
  IER. . . . . . . . . . . . . . . . .  MEMBER  -----   U_CHAR  000001H     1
  SR1. . . . . . . . . . . . . . . . .  MEMBER  -----   U_CHAR  000002H     1
  SR2. . . . . . . . . . . . . . . . .  MEMBER  -----   U_CHAR  000003H     1
  EGR. . . . . . . . . . . . . . . . .  MEMBER  -----   U_CHAR  000004H     1
  CCMR1. . . . . . . . . . . . . . . .  MEMBER  -----   U_CHAR  000005H     1
  CCMR2. . . . . . . . . . . . . . . .  MEMBER  -----   U_CHAR  000006H     1
  CCMR3. . . . . . . . . . . . . . . .  MEMBER  -----   U_CHAR  000007H     1
  CCER1. . . . . . . . . . . . . . . .  MEMBER  -----   U_CHAR  000008H     1
  CCER2. . . . . . . . . . . . . . . .  MEMBER  -----   U_CHAR  000009H     1
  CNTRH. . . . . . . . . . . . . . . .  MEMBER  -----   U_CHAR  00000AH     1
  CNTRL. . . . . . . . . . . . . . . .  MEMBER  -----   U_CHAR  00000BH     1
  PSCR . . . . . . . . . . . . . . . .  MEMBER  -----   U_CHAR  00000CH     1
  ARRH . . . . . . . . . . . . . . . .  MEMBER  -----   U_CHAR  00000DH     1
  ARRL . . . . . . . . . . . . . . . .  MEMBER  -----   U_CHAR  00000EH     1
  CCR1H. . . . . . . . . . . . . . . .  MEMBER  -----   U_CHAR  00000FH     1
  CCR1L. . . . . . . . . . . . . . . .  MEMBER  -----   U_CHAR  000010H     1
  CCR2H. . . . . . . . . . . . . . . .  MEMBER  -----   U_CHAR  000011H     1
  CCR2L. . . . . . . . . . . . . . . .  MEMBER  -----   U_CHAR  000012H     1
  CCR3H. . . . . . . . . . . . . . . .  MEMBER  -----   U_CHAR  000013H     1
  CCR3L. . . . . . . . . . . . . . . .  MEMBER  -----   U_CHAR  000014H     1
TIM3_struct. . . . . . . . . . . . . . * TAG *  ----- STRUCT  -------    17
  CR1. . . . . . . . . . . . . . . . .  MEMBER  -----   U_CHAR  000000H     1
  IER. . . . . . . . . . . . . . . . .  MEMBER  -----   U_CHAR  000001H     1
  SR1. . . . . . . . . . . . . . . . .  MEMBER  -----   U_CHAR  000002H     1
  SR2. . . . . . . . . . . . . . . . .  MEMBER  -----   U_CHAR  000003H     1
  EGR. . . . . . . . . . . . . . . . .  MEMBER  -----   U_CHAR  000004H     1
  CCMR1. . . . . . . . . . . . . . . .  MEMBER  -----   U_CHAR  000005H     1
  CCMR2. . . . . . . . . . . . . . . .  MEMBER  -----   U_CHAR  000006H     1
  CCER1. . . . . . . . . . . . . . . .  MEMBER  -----   U_CHAR  000007H     1
  CNTRH. . . . . . . . . . . . . . . .  MEMBER  -----   U_CHAR  000008H     1
  CNTRL. . . . . . . . . . . . . . . .  MEMBER  -----   U_CHAR  000009H     1
  PSCR . . . . . . . . . . . . . . . .  MEMBER  -----   U_CHAR  00000AH     1
  ARRH . . . . . . . . . . . . . . . .  MEMBER  -----   U_CHAR  00000BH     1
  ARRL . . . . . . . . . . . . . . . .  MEMBER  -----   U_CHAR  00000CH     1
  CCR1H. . . . . . . . . . . . . . . .  MEMBER  -----   U_CHAR  00000DH     1
  CCR1L. . . . . . . . . . . . . . . .  MEMBER  -----   U_CHAR  00000EH     1
  CCR2H. . . . . . . . . . . . . . . .  MEMBER  -----   U_CHAR  00000FH     1
  CCR2L. . . . . . . . . . . . . . . .  MEMBER  -----   U_CHAR  000010H     1
TIM3_TypeDef . . . . . . . . . . . . .  TYPEDEF ------- STRUCT   -------    17
  CR1. . . . . . . . . . . . . . . . .  MEMBER  -----   U_CHAR  000000H     1
  IER. . . . . . . . . . . . . . . . .  MEMBER  -----   U_CHAR  000001H     1
  SR1. . . . . . . . . . . . . . . . .  MEMBER  -----   U_CHAR  000002H     1
  SR2. . . . . . . . . . . . . . . . .  MEMBER  -----   U_CHAR  000003H     1
  EGR. . . . . . . . . . . . . . . . .  MEMBER  -----   U_CHAR  000004H     1
  CCMR1. . . . . . . . . . . . . . . .  MEMBER  -----   U_CHAR  000005H     1
  CCMR2. . . . . . . . . . . . . . . .  MEMBER  -----   U_CHAR  000006H     1
  CCER1. . . . . . . . . . . . . . . .  MEMBER  -----   U_CHAR  000007H     1
  CNTRH. . . . . . . . . . . . . . . .  MEMBER  -----   U_CHAR  000008H     1
  CNTRL. . . . . . . . . . . . . . . .  MEMBER  -----   U_CHAR  000009H     1
  PSCR . . . . . . . . . . . . . . . .  MEMBER  -----   U_CHAR  00000AH     1
  ARRH . . . . . . . . . . . . . . . .  MEMBER  -----   U_CHAR  00000BH     1
  ARRL . . . . . . . . . . . . . . . .  MEMBER  -----   U_CHAR  00000CH     1
  CCR1H. . . . . . . . . . . . . . . .  MEMBER  -----   U_CHAR  00000DH     1
  CCR1L. . . . . . . . . . . . . . . .  MEMBER  -----   U_CHAR  00000EH     1
  CCR2H. . . . . . . . . . . . . . . .  MEMBER  -----   U_CHAR  00000FH     1
  CCR2L. . . . . . . . . . . . . . . .  MEMBER  -----   U_CHAR  000010H     1
TIM4_struct. . . . . . . . . . . . . . * TAG *  ----- STRUCT  -------     7
  CR1. . . . . . . . . . . . . . . . .  MEMBER  -----   U_CHAR  000000H     1
  IER. . . . . . . . . . . . . . . . .  MEMBER  -----   U_CHAR  000001H     1
  SR1. . . . . . . . . . . . . . . . .  MEMBER  -----   U_CHAR  000002H     1
  EGR. . . . . . . . . . . . . . . . .  MEMBER  -----   U_CHAR  000003H     1
  CNTR . . . . . . . . . . . . . . . .  MEMBER  -----   U_CHAR  000004H     1
  PSCR . . . . . . . . . . . . . . . .  MEMBER  -----   U_CHAR  000005H     1
  ARR. . . . . . . . . . . . . . . . .  MEMBER  -----   U_CHAR  000006H     1
TIM4_TypeDef . . . . . . . . . . . . .  TYPEDEF ------- STRUCT   -------     7
  CR1. . . . . . . . . . . . . . . . .  MEMBER  -----   U_CHAR  000000H     1
  IER. . . . . . . . . . . . . . . . .  MEMBER  -----   U_CHAR  000001H     1
  SR1. . . . . . . . . . . . . . . . .  MEMBER  -----   U_CHAR  000002H     1
  EGR. . . . . . . . . . . . . . . . .  MEMBER  -----   U_CHAR  000003H     1
  CNTR . . . . . . . . . . . . . . . .  MEMBER  -----   U_CHAR  000004H     1
  PSCR . . . . . . . . . . . . . . . .  MEMBER  -----   U_CHAR  000005H     1
  ARR. . . . . . . . . . . . . . . . .  MEMBER  -----   U_CHAR  000006H     1
TIM5_struct. . . . . . . . . . . . . . * TAG *  ----- STRUCT  -------    23
  CR1. . . . . . . . . . . . . . . . .  MEMBER  -----   U_CHAR  000000H     1
  CR2. . . . . . . . . . . . . . . . .  MEMBER  -----   U_CHAR  000001H     1
  SMCR . . . . . . . . . . . . . . . .  MEMBER  -----   U_CHAR  000002H     1
  IER. . . . . . . . . . . . . . . . .  MEMBER  -----   U_CHAR  000003H     1
  SR1. . . . . . . . . . . . . . . . .  MEMBER  -----   U_CHAR  000004H     1
  SR2. . . . . . . . . . . . . . . . .  MEMBER  -----   U_CHAR  000005H     1
  EGR. . . . . . . . . . . . . . . . .  MEMBER  -----   U_CHAR  000006H     1
  CCMR1. . . . . . . . . . . . . . . .  MEMBER  -----   U_CHAR  000007H     1
  CCMR2. . . . . . . . . . . . . . . .  MEMBER  -----   U_CHAR  000008H     1
  CCMR3. . . . . . . . . . . . . . . .  MEMBER  -----   U_CHAR  000009H     1
  CCER1. . . . . . . . . . . . . . . .  MEMBER  -----   U_CHAR  00000AH     1
  CCER2. . . . . . . . . . . . . . . .  MEMBER  -----   U_CHAR  00000BH     1
  CNTRH. . . . . . . . . . . . . . . .  MEMBER  -----   U_CHAR  00000CH     1
  CNTRL. . . . . . . . . . . . . . . .  MEMBER  -----   U_CHAR  00000DH     1
  PSCR . . . . . . . . . . . . . . . .  MEMBER  -----   U_CHAR  00000EH     1
  ARRH . . . . . . . . . . . . . . . .  MEMBER  -----   U_CHAR  00000FH     1
  ARRL . . . . . . . . . . . . . . . .  MEMBER  -----   U_CHAR  000010H     1
  CCR1H. . . . . . . . . . . . . . . .  MEMBER  -----   U_CHAR  000011H     1
  CCR1L. . . . . . . . . . . . . . . .  MEMBER  -----   U_CHAR  000012H     1
  CCR2H. . . . . . . . . . . . . . . .  MEMBER  -----   U_CHAR  000013H     1
  CCR2L. . . . . . . . . . . . . . . .  MEMBER  -----   U_CHAR  000014H     1
  CCR3H. . . . . . . . . . . . . . . .  MEMBER  -----   U_CHAR  000015H     1
  CCR3L. . . . . . . . . . . . . . . .  MEMBER  -----   U_CHAR  000016H     1
TIM5_TypeDef . . . . . . . . . . . . .  TYPEDEF ------- STRUCT   -------    23
  CR1. . . . . . . . . . . . . . . . .  MEMBER  -----   U_CHAR  000000H     1
  CR2. . . . . . . . . . . . . . . . .  MEMBER  -----   U_CHAR  000001H     1
  SMCR . . . . . . . . . . . . . . . .  MEMBER  -----   U_CHAR  000002H     1
  IER. . . . . . . . . . . . . . . . .  MEMBER  -----   U_CHAR  000003H     1
  SR1. . . . . . . . . . . . . . . . .  MEMBER  -----   U_CHAR  000004H     1
  SR2. . . . . . . . . . . . . . . . .  MEMBER  -----   U_CHAR  000005H     1
  EGR. . . . . . . . . . . . . . . . .  MEMBER  -----   U_CHAR  000006H     1
  CCMR1. . . . . . . . . . . . . . . .  MEMBER  -----   U_CHAR  000007H     1
  CCMR2. . . . . . . . . . . . . . . .  MEMBER  -----   U_CHAR  000008H     1
  CCMR3. . . . . . . . . . . . . . . .  MEMBER  -----   U_CHAR  000009H     1
  CCER1. . . . . . . . . . . . . . . .  MEMBER  -----   U_CHAR  00000AH     1
  CCER2. . . . . . . . . . . . . . . .  MEMBER  -----   U_CHAR  00000BH     1
  CNTRH. . . . . . . . . . . . . . . .  MEMBER  -----   U_CHAR  00000CH     1
  CNTRL. . . . . . . . . . . . . . . .  MEMBER  -----   U_CHAR  00000DH     1
  PSCR . . . . . . . . . . . . . . . .  MEMBER  -----   U_CHAR  00000EH     1
  ARRH . . . . . . . . . . . . . . . .  MEMBER  -----   U_CHAR  00000FH     1
  ARRL . . . . . . . . . . . . . . . .  MEMBER  -----   U_CHAR  000010H     1
  CCR1H. . . . . . . . . . . . . . . .  MEMBER  -----   U_CHAR  000011H     1
  CCR1L. . . . . . . . . . . . . . . .  MEMBER  -----   U_CHAR  000012H     1
  CCR2H. . . . . . . . . . . . . . . .  MEMBER  -----   U_CHAR  000013H     1
  CCR2L. . . . . . . . . . . . . . . .  MEMBER  -----   U_CHAR  000014H     1
  CCR3H. . . . . . . . . . . . . . . .  MEMBER  -----   U_CHAR  000015H     1
  CCR3L. . . . . . . . . . . . . . . .  MEMBER  -----   U_CHAR  000016H     1
TIM6_struct. . . . . . . . . . . . . . * TAG *  ----- STRUCT  -------     9
  CR1. . . . . . . . . . . . . . . . .  MEMBER  -----   U_CHAR  000000H     1
  CR2. . . . . . . . . . . . . . . . .  MEMBER  -----   U_CHAR  000001H     1
  SMCR . . . . . . . . . . . . . . . .  MEMBER  -----   U_CHAR  000002H     1
  IER. . . . . . . . . . . . . . . . .  MEMBER  -----   U_CHAR  000003H     1
  SR1. . . . . . . . . . . . . . . . .  MEMBER  -----   U_CHAR  000004H     1
  EGR. . . . . . . . . . . . . . . . .  MEMBER  -----   U_CHAR  000005H     1
  CNTR . . . . . . . . . . . . . . . .  MEMBER  -----   U_CHAR  000006H     1
  PSCR . . . . . . . . . . . . . . . .  MEMBER  -----   U_CHAR  000007H     1
  ARR. . . . . . . . . . . . . . . . .  MEMBER  -----   U_CHAR  000008H     1
TIM6_TypeDef . . . . . . . . . . . . .  TYPEDEF ------- STRUCT   -------     9
  CR1. . . . . . . . . . . . . . . . .  MEMBER  -----   U_CHAR  000000H     1
  CR2. . . . . . . . . . . . . . . . .  MEMBER  -----   U_CHAR  000001H     1
  SMCR . . . . . . . . . . . . . . . .  MEMBER  -----   U_CHAR  000002H     1
  IER. . . . . . . . . . . . . . . . .  MEMBER  -----   U_CHAR  000003H     1
  SR1. . . . . . . . . . . . . . . . .  MEMBER  -----   U_CHAR  000004H     1
  EGR. . . . . . . . . . . . . . . . .  MEMBER  -----   U_CHAR  000005H     1
  CNTR . . . . . . . . . . . . . . . .  MEMBER  -----   U_CHAR  000006H     1
  PSCR . . . . . . . . . . . . . . . .  MEMBER  -----   U_CHAR  000007H     1
  ARR. . . . . . . . . . . . . . . . .  MEMBER  -----   U_CHAR  000008H     1
I2C_struct . . . . . . . . . . . . . . * TAG *  ----- STRUCT  -------    15
  CR1. . . . . . . . . . . . . . . . .  MEMBER  -----   U_CHAR  000000H     1
  CR2. . . . . . . . . . . . . . . . .  MEMBER  -----   U_CHAR  000001H     1
  FREQR. . . . . . . . . . . . . . . .  MEMBER  -----   U_CHAR  000002H     1
  OARL . . . . . . . . . . . . . . . .  MEMBER  -----   U_CHAR  000003H     1
  OARH . . . . . . . . . . . . . . . .  MEMBER  -----   U_CHAR  000004H     1
  RESERVED1. . . . . . . . . . . . . .  MEMBER  -----   U_CHAR  000005H     1
  DR . . . . . . . . . . . . . . . . .  MEMBER  -----   U_CHAR  000006H     1
  SR1. . . . . . . . . . . . . . . . .  MEMBER  -----   U_CHAR  000007H     1
  SR2. . . . . . . . . . . . . . . . .  MEMBER  -----   U_CHAR  000008H     1
  SR3. . . . . . . . . . . . . . . . .  MEMBER  -----   U_CHAR  000009H     1
  ITR. . . . . . . . . . . . . . . . .  MEMBER  -----   U_CHAR  00000AH     1
  CCRL . . . . . . . . . . . . . . . .  MEMBER  -----   U_CHAR  00000BH     1
  CCRH . . . . . . . . . . . . . . . .  MEMBER  -----   U_CHAR  00000CH     1
  TRISER . . . . . . . . . . . . . . .  MEMBER  -----   U_CHAR  00000DH     1
  RESERVED2. . . . . . . . . . . . . .  MEMBER  -----   U_CHAR  00000EH     1
I2C_TypeDef. . . . . . . . . . . . . .  TYPEDEF ------- STRUCT   -------    15
  CR1. . . . . . . . . . . . . . . . .  MEMBER  -----   U_CHAR  000000H     1
  CR2. . . . . . . . . . . . . . . . .  MEMBER  -----   U_CHAR  000001H     1
  FREQR. . . . . . . . . . . . . . . .  MEMBER  -----   U_CHAR  000002H     1
  OARL . . . . . . . . . . . . . . . .  MEMBER  -----   U_CHAR  000003H     1
  OARH . . . . . . . . . . . . . . . .  MEMBER  -----   U_CHAR  000004H     1
  RESERVED1. . . . . . . . . . . . . .  MEMBER  -----   U_CHAR  000005H     1
  DR . . . . . . . . . . . . . . . . .  MEMBER  -----   U_CHAR  000006H     1
  SR1. . . . . . . . . . . . . . . . .  MEMBER  -----   U_CHAR  000007H     1
  SR2. . . . . . . . . . . . . . . . .  MEMBER  -----   U_CHAR  000008H     1
  SR3. . . . . . . . . . . . . . . . .  MEMBER  -----   U_CHAR  000009H     1
  ITR. . . . . . . . . . . . . . . . .  MEMBER  -----   U_CHAR  00000AH     1
  CCRL . . . . . . . . . . . . . . . .  MEMBER  -----   U_CHAR  00000BH     1
  CCRH . . . . . . . . . . . . . . . .  MEMBER  -----   U_CHAR  00000CH     1
  TRISER . . . . . . . . . . . . . . .  MEMBER  -----   U_CHAR  00000DH     1
  RESERVED2. . . . . . . . . . . . . .  MEMBER  -----   U_CHAR  00000EH     1
ITC_struct . . . . . . . . . . . . . . * TAG *  ----- STRUCT  -------     8
  ISPR1. . . . . . . . . . . . . . . .  MEMBER  -----   U_CHAR  000000H     1
  ISPR2. . . . . . . . . . . . . . . .  MEMBER  -----   U_CHAR  000001H     1
  ISPR3. . . . . . . . . . . . . . . .  MEMBER  -----   U_CHAR  000002H     1
  ISPR4. . . . . . . . . . . . . . . .  MEMBER  -----   U_CHAR  000003H     1
  ISPR5. . . . . . . . . . . . . . . .  MEMBER  -----   U_CHAR  000004H     1
  ISPR6. . . . . . . . . . . . . . . .  MEMBER  -----   U_CHAR  000005H     1
  ISPR7. . . . . . . . . . . . . . . .  MEMBER  -----   U_CHAR  000006H     1
  ISPR8. . . . . . . . . . . . . . . .  MEMBER  -----   U_CHAR  000007H     1
ITC_TypeDef. . . . . . . . . . . . . .  TYPEDEF ------- STRUCT   -------     8
  ISPR1. . . . . . . . . . . . . . . .  MEMBER  -----   U_CHAR  000000H     1
  ISPR2. . . . . . . . . . . . . . . .  MEMBER  -----   U_CHAR  000001H     1
  ISPR3. . . . . . . . . . . . . . . .  MEMBER  -----   U_CHAR  000002H     1
  ISPR4. . . . . . . . . . . . . . . .  MEMBER  -----   U_CHAR  000003H     1
  ISPR5. . . . . . . . . . . . . . . .  MEMBER  -----   U_CHAR  000004H     1
  ISPR6. . . . . . . . . . . . . . . .  MEMBER  -----   U_CHAR  000005H     1
  ISPR7. . . . . . . . . . . . . . . .  MEMBER  -----   U_CHAR  000006H     1
  ISPR8. . . . . . . . . . . . . . . .  MEMBER  -----   U_CHAR  000007H     1
EXTI_struct. . . . . . . . . . . . . . * TAG *  ----- STRUCT  -------     2
  CR1. . . . . . . . . . . . . . . . .  MEMBER  -----   U_CHAR  000000H     1
  CR2. . . . . . . . . . . . . . . . .  MEMBER  -----   U_CHAR  000001H     1
EXTI_TypeDef . . . . . . . . . . . . .  TYPEDEF ------- STRUCT   -------     2
  CR1. . . . . . . . . . . . . . . . .  MEMBER  -----   U_CHAR  000000H     1
  CR2. . . . . . . . . . . . . . . . .  MEMBER  -----   U_CHAR  000001H     1
FLASH_struct . . . . . . . . . . . . . * TAG *  ----- STRUCT  -------    11
  CR1. . . . . . . . . . . . . . . . .  MEMBER  -----   U_CHAR  000000H     1
  CR2. . . . . . . . . . . . . . . . .  MEMBER  -----   U_CHAR  000001H     1
  NCR2 . . . . . . . . . . . . . . . .  MEMBER  -----   U_CHAR  000002H     1
  FPR. . . . . . . . . . . . . . . . .  MEMBER  -----   U_CHAR  000003H     1
  NFPR . . . . . . . . . . . . . . . .  MEMBER  -----   U_CHAR  000004H     1
  IAPSR. . . . . . . . . . . . . . . .  MEMBER  -----   U_CHAR  000005H     1
  RESERVED1. . . . . . . . . . . . . .  MEMBER  -----   U_CHAR  000006H     1
  RESERVED2. . . . . . . . . . . . . .  MEMBER  -----   U_CHAR  000007H     1
  PUKR . . . . . . . . . . . . . . . .  MEMBER  -----   U_CHAR  000008H     1
  RESERVED3. . . . . . . . . . . . . .  MEMBER  -----   U_CHAR  000009H     1
  DUKR . . . . . . . . . . . . . . . .  MEMBER  -----   U_CHAR  00000AH     1
FLASH_TypeDef. . . . . . . . . . . . .  TYPEDEF ------- STRUCT   -------    11
  CR1. . . . . . . . . . . . . . . . .  MEMBER  -----   U_CHAR  000000H     1
  CR2. . . . . . . . . . . . . . . . .  MEMBER  -----   U_CHAR  000001H     1
  NCR2 . . . . . . . . . . . . . . . .  MEMBER  -----   U_CHAR  000002H     1
  FPR. . . . . . . . . . . . . . . . .  MEMBER  -----   U_CHAR  000003H     1
  NFPR . . . . . . . . . . . . . . . .  MEMBER  -----   U_CHAR  000004H     1
  IAPSR. . . . . . . . . . . . . . . .  MEMBER  -----   U_CHAR  000005H     1
  RESERVED1. . . . . . . . . . . . . .  MEMBER  -----   U_CHAR  000006H     1
  RESERVED2. . . . . . . . . . . . . .  MEMBER  -----   U_CHAR  000007H     1
  PUKR . . . . . . . . . . . . . . . .  MEMBER  -----   U_CHAR  000008H     1
  RESERVED3. . . . . . . . . . . . . .  MEMBER  -----   U_CHAR  000009H     1
  DUKR . . . . . . . . . . . . . . . .  MEMBER  -----   U_CHAR  00000AH     1
OPT_struct . . . . . . . . . . . . . . * TAG *  ----- STRUCT  -------    15
  OPT0 . . . . . . . . . . . . . . . .  MEMBER  -----   U_CHAR  000000H     1
  OPT1 . . . . . . . . . . . . . . . .  MEMBER  -----   U_CHAR  000001H     1
  NOPT1. . . . . . . . . . . . . . . .  MEMBER  -----   U_CHAR  000002H     1
  OPT2 . . . . . . . . . . . . . . . .  MEMBER  -----   U_CHAR  000003H     1
  NOPT2. . . . . . . . . . . . . . . .  MEMBER  -----   U_CHAR  000004H     1
  OPT3 . . . . . . . . . . . . . . . .  MEMBER  -----   U_CHAR  000005H     1
  NOPT3. . . . . . . . . . . . . . . .  MEMBER  -----   U_CHAR  000006H     1
  OPT4 . . . . . . . . . . . . . . . .  MEMBER  -----   U_CHAR  000007H     1
  NOPT4. . . . . . . . . . . . . . . .  MEMBER  -----   U_CHAR  000008H     1
  OPT5 . . . . . . . . . . . . . . . .  MEMBER  -----   U_CHAR  000009H     1
  NOPT5. . . . . . . . . . . . . . . .  MEMBER  -----   U_CHAR  00000AH     1
  RESERVED1. . . . . . . . . . . . . .  MEMBER  -----   U_CHAR  00000BH     1
  RESERVED2. . . . . . . . . . . . . .  MEMBER  -----   U_CHAR  00000CH     1
  OPT7 . . . . . . . . . . . . . . . .  MEMBER  -----   U_CHAR  00000DH     1
  NOPT7. . . . . . . . . . . . . . . .  MEMBER  -----   U_CHAR  00000EH     1
OPT_TypeDef. . . . . . . . . . . . . .  TYPEDEF ------- STRUCT   -------    15
  OPT0 . . . . . . . . . . . . . . . .  MEMBER  -----   U_CHAR  000000H     1
  OPT1 . . . . . . . . . . . . . . . .  MEMBER  -----   U_CHAR  000001H     1
  NOPT1. . . . . . . . . . . . . . . .  MEMBER  -----   U_CHAR  000002H     1
  OPT2 . . . . . . . . . . . . . . . .  MEMBER  -----   U_CHAR  000003H     1
  NOPT2. . . . . . . . . . . . . . . .  MEMBER  -----   U_CHAR  000004H     1
  OPT3 . . . . . . . . . . . . . . . .  MEMBER  -----   U_CHAR  000005H     1
  NOPT3. . . . . . . . . . . . . . . .  MEMBER  -----   U_CHAR  000006H     1
  OPT4 . . . . . . . . . . . . . . . .  MEMBER  -----   U_CHAR  000007H     1
  NOPT4. . . . . . . . . . . . . . . .  MEMBER  -----   U_CHAR  000008H     1
  OPT5 . . . . . . . . . . . . . . . .  MEMBER  -----   U_CHAR  000009H     1
  NOPT5. . . . . . . . . . . . . . . .  MEMBER  -----   U_CHAR  00000AH     1
  RESERVED1. . . . . . . . . . . . . .  MEMBER  -----   U_CHAR  00000BH     1
  RESERVED2. . . . . . . . . . . . . .  MEMBER  -----   U_CHAR  00000CH     1
  OPT7 . . . . . . . . . . . . . . . .  MEMBER  -----   U_CHAR  00000DH     1
  NOPT7. . . . . . . . . . . . . . . .  MEMBER  -----   U_CHAR  00000EH     1
IWDG_struct. . . . . . . . . . . . . . * TAG *  ----- STRUCT  -------     3
  KR . . . . . . . . . . . . . . . . .  MEMBER  -----   U_CHAR  000000H     1
  PR . . . . . . . . . . . . . . . . .  MEMBER  -----   U_CHAR  000001H     1
  RLR. . . . . . . . . . . . . . . . .  MEMBER  -----   U_CHAR  000002H     1
IWDG_TypeDef . . . . . . . . . . . . .  TYPEDEF ------- STRUCT   -------     3
  KR . . . . . . . . . . . . . . . . .  MEMBER  -----   U_CHAR  000000H     1
  PR . . . . . . . . . . . . . . . . .  MEMBER  -----   U_CHAR  000001H     1
  RLR. . . . . . . . . . . . . . . . .  MEMBER  -----   U_CHAR  000002H     1
WWDG_struct. . . . . . . . . . . . . . * TAG *  ----- STRUCT  -------     2
  CR . . . . . . . . . . . . . . . . .  MEMBER  -----   U_CHAR  000000H     1
  WR . . . . . . . . . . . . . . . . .  MEMBER  -----   U_CHAR  000001H     1
WWDG_TypeDef . . . . . . . . . . . . .  TYPEDEF ------- STRUCT   -------     2
  CR . . . . . . . . . . . . . . . . .  MEMBER  -----   U_CHAR  000000H     1
  WR . . . . . . . . . . . . . . . . .  MEMBER  -----   U_CHAR  000001H     1
RST_struct . . . . . . . . . . . . . . * TAG *  ----- STRUCT  -------     1
  SR . . . . . . . . . . . . . . . . .  MEMBER  -----   U_CHAR  000000H     1
RST_TypeDef. . . . . . . . . . . . . .  TYPEDEF ------- STRUCT   -------     1
  SR . . . . . . . . . . . . . . . . .  MEMBER  -----   U_CHAR  000000H     1
SPI_struct . . . . . . . . . . . . . . * TAG *  ----- STRUCT  -------     8
  CR1. . . . . . . . . . . . . . . . .  MEMBER  -----   U_CHAR  000000H     1
  CR2. . . . . . . . . . . . . . . . .  MEMBER  -----   U_CHAR  000001H     1
  ICR. . . . . . . . . . . . . . . . .  MEMBER  -----   U_CHAR  000002H     1
  SR . . . . . . . . . . . . . . . . .  MEMBER  -----   U_CHAR  000003H     1
  DR . . . . . . . . . . . . . . . . .  MEMBER  -----   U_CHAR  000004H     1
  CRCPR. . . . . . . . . . . . . . . .  MEMBER  -----   U_CHAR  000005H     1
  RXCRCR . . . . . . . . . . . . . . .  MEMBER  -----   U_CHAR  000006H     1
  TXCRCR . . . . . . . . . . . . . . .  MEMBER  -----   U_CHAR  000007H     1
SPI_TypeDef. . . . . . . . . . . . . .  TYPEDEF ------- STRUCT   -------     8
  CR1. . . . . . . . . . . . . . . . .  MEMBER  -----   U_CHAR  000000H     1
  CR2. . . . . . . . . . . . . . . . .  MEMBER  -----   U_CHAR  000001H     1
  ICR. . . . . . . . . . . . . . . . .  MEMBER  -----   U_CHAR  000002H     1
  SR . . . . . . . . . . . . . . . . .  MEMBER  -----   U_CHAR  000003H     1
  DR . . . . . . . . . . . . . . . . .  MEMBER  -----   U_CHAR  000004H     1
  CRCPR. . . . . . . . . . . . . . . .  MEMBER  -----   U_CHAR  000005H     1
  RXCRCR . . . . . . . . . . . . . . .  MEMBER  -----   U_CHAR  000006H     1
  TXCRCR . . . . . . . . . . . . . . .  MEMBER  -----   U_CHAR  000007H     1
UART1_struct . . . . . . . . . . . . . * TAG *  ----- STRUCT  -------    11
  SR . . . . . . . . . . . . . . . . .  MEMBER  -----   U_CHAR  000000H     1
  DR . . . . . . . . . . . . . . . . .  MEMBER  -----   U_CHAR  000001H     1
  BRR1 . . . . . . . . . . . . . . . .  MEMBER  -----   U_CHAR  000002H     1
  BRR2 . . . . . . . . . . . . . . . .  MEMBER  -----   U_CHAR  000003H     1
  CR1. . . . . . . . . . . . . . . . .  MEMBER  -----   U_CHAR  000004H     1
  CR2. . . . . . . . . . . . . . . . .  MEMBER  -----   U_CHAR  000005H     1
  CR3. . . . . . . . . . . . . . . . .  MEMBER  -----   U_CHAR  000006H     1
  CR4. . . . . . . . . . . . . . . . .  MEMBER  -----   U_CHAR  000007H     1
  CR5. . . . . . . . . . . . . . . . .  MEMBER  -----   U_CHAR  000008H     1
  GTR. . . . . . . . . . . . . . . . .  MEMBER  -----   U_CHAR  000009H     1
  PSCR . . . . . . . . . . . . . . . .  MEMBER  -----   U_CHAR  00000AH     1
UART1_TypeDef. . . . . . . . . . . . .  TYPEDEF ------- STRUCT   -------    11
  SR . . . . . . . . . . . . . . . . .  MEMBER  -----   U_CHAR  000000H     1
  DR . . . . . . . . . . . . . . . . .  MEMBER  -----   U_CHAR  000001H     1
  BRR1 . . . . . . . . . . . . . . . .  MEMBER  -----   U_CHAR  000002H     1
  BRR2 . . . . . . . . . . . . . . . .  MEMBER  -----   U_CHAR  000003H     1
  CR1. . . . . . . . . . . . . . . . .  MEMBER  -----   U_CHAR  000004H     1
  CR2. . . . . . . . . . . . . . . . .  MEMBER  -----   U_CHAR  000005H     1
  CR3. . . . . . . . . . . . . . . . .  MEMBER  -----   U_CHAR  000006H     1
  CR4. . . . . . . . . . . . . . . . .  MEMBER  -----   U_CHAR  000007H     1
  CR5. . . . . . . . . . . . . . . . .  MEMBER  -----   U_CHAR  000008H     1
  GTR. . . . . . . . . . . . . . . . .  MEMBER  -----   U_CHAR  000009H     1
  PSCR . . . . . . . . . . . . . . . .  MEMBER  -----   U_CHAR  00000AH     1
UART2_struct . . . . . . . . . . . . . * TAG *  ----- STRUCT  -------    12
  SR . . . . . . . . . . . . . . . . .  MEMBER  -----   U_CHAR  000000H     1
  DR . . . . . . . . . . . . . . . . .  MEMBER  -----   U_CHAR  000001H     1
  BRR1 . . . . . . . . . . . . . . . .  MEMBER  -----   U_CHAR  000002H     1
  BRR2 . . . . . . . . . . . . . . . .  MEMBER  -----   U_CHAR  000003H     1
  CR1. . . . . . . . . . . . . . . . .  MEMBER  -----   U_CHAR  000004H     1
  CR2. . . . . . . . . . . . . . . . .  MEMBER  -----   U_CHAR  000005H     1
  CR3. . . . . . . . . . . . . . . . .  MEMBER  -----   U_CHAR  000006H     1
  CR4. . . . . . . . . . . . . . . . .  MEMBER  -----   U_CHAR  000007H     1
  CR5. . . . . . . . . . . . . . . . .  MEMBER  -----   U_CHAR  000008H     1
  CR6. . . . . . . . . . . . . . . . .  MEMBER  -----   U_CHAR  000009H     1
  GTR. . . . . . . . . . . . . . . . .  MEMBER  -----   U_CHAR  00000AH     1
  PSCR . . . . . . . . . . . . . . . .  MEMBER  -----   U_CHAR  00000BH     1
UART2_TypeDef. . . . . . . . . . . . .  TYPEDEF ------- STRUCT   -------    12
  SR . . . . . . . . . . . . . . . . .  MEMBER  -----   U_CHAR  000000H     1
  DR . . . . . . . . . . . . . . . . .  MEMBER  -----   U_CHAR  000001H     1
  BRR1 . . . . . . . . . . . . . . . .  MEMBER  -----   U_CHAR  000002H     1
  BRR2 . . . . . . . . . . . . . . . .  MEMBER  -----   U_CHAR  000003H     1
  CR1. . . . . . . . . . . . . . . . .  MEMBER  -----   U_CHAR  000004H     1
  CR2. . . . . . . . . . . . . . . . .  MEMBER  -----   U_CHAR  000005H     1
  CR3. . . . . . . . . . . . . . . . .  MEMBER  -----   U_CHAR  000006H     1
  CR4. . . . . . . . . . . . . . . . .  MEMBER  -----   U_CHAR  000007H     1
  CR5. . . . . . . . . . . . . . . . .  MEMBER  -----   U_CHAR  000008H     1
  CR6. . . . . . . . . . . . . . . . .  MEMBER  -----   U_CHAR  000009H     1
  GTR. . . . . . . . . . . . . . . . .  MEMBER  -----   U_CHAR  00000AH     1
  PSCR . . . . . . . . . . . . . . . .  MEMBER  -----   U_CHAR  00000BH     1
UART3_struct . . . . . . . . . . . . . * TAG *  ----- STRUCT  -------    10
  SR . . . . . . . . . . . . . . . . .  MEMBER  -----   U_CHAR  000000H     1
  DR . . . . . . . . . . . . . . . . .  MEMBER  -----   U_CHAR  000001H     1
  BRR1 . . . . . . . . . . . . . . . .  MEMBER  -----   U_CHAR  000002H     1
  BRR2 . . . . . . . . . . . . . . . .  MEMBER  -----   U_CHAR  000003H     1
  CR1. . . . . . . . . . . . . . . . .  MEMBER  -----   U_CHAR  000004H     1
  CR2. . . . . . . . . . . . . . . . .  MEMBER  -----   U_CHAR  000005H     1
  CR3. . . . . . . . . . . . . . . . .  MEMBER  -----   U_CHAR  000006H     1
  CR4. . . . . . . . . . . . . . . . .  MEMBER  -----   U_CHAR  000007H     1
  RESERVED . . . . . . . . . . . . . .  MEMBER  -----   U_CHAR  000008H     1
  CR6. . . . . . . . . . . . . . . . .  MEMBER  -----   U_CHAR  000009H     1
UART3_TypeDef. . . . . . . . . . . . .  TYPEDEF ------- STRUCT   -------    10
  SR . . . . . . . . . . . . . . . . .  MEMBER  -----   U_CHAR  000000H     1
  DR . . . . . . . . . . . . . . . . .  MEMBER  -----   U_CHAR  000001H     1
  BRR1 . . . . . . . . . . . . . . . .  MEMBER  -----   U_CHAR  000002H     1
  BRR2 . . . . . . . . . . . . . . . .  MEMBER  -----   U_CHAR  000003H     1
  CR1. . . . . . . . . . . . . . . . .  MEMBER  -----   U_CHAR  000004H     1
  CR2. . . . . . . . . . . . . . . . .  MEMBER  -----   U_CHAR  000005H     1
  CR3. . . . . . . . . . . . . . . . .  MEMBER  -----   U_CHAR  000006H     1
  CR4. . . . . . . . . . . . . . . . .  MEMBER  -----   U_CHAR  000007H     1
  RESERVED . . . . . . . . . . . . . .  MEMBER  -----   U_CHAR  000008H     1
  CR6. . . . . . . . . . . . . . . . .  MEMBER  -----   U_CHAR  000009H     1
CAN_TypeDef. . . . . . . . . . . . . .  TYPEDEF ------- STRUCT   -------    24
  MCR. . . . . . . . . . . . . . . . .  MEMBER  -----   U_CHAR  000000H     1
  MSR. . . . . . . . . . . . . . . . .  MEMBER  -----   U_CHAR  000001H     1
  TSR. . . . . . . . . . . . . . . . .  MEMBER  -----   U_CHAR  000002H     1
  TPR. . . . . . . . . . . . . . . . .  MEMBER  -----   U_CHAR  000003H     1
  RFR. . . . . . . . . . . . . . . . .  MEMBER  -----   U_CHAR  000004H     1
  IER. . . . . . . . . . . . . . . . .  MEMBER  -----   U_CHAR  000005H     1
  DGR. . . . . . . . . . . . . . . . .  MEMBER  -----   U_CHAR  000006H     1
  PSR. . . . . . . . . . . . . . . . .  MEMBER  -----   U_CHAR  000007H     1
  Page . . . . . . . . . . . . . . . .  MEMBER  -----   UNION   000008H    16
CFG_struct . . . . . . . . . . . . . . * TAG *  ----- STRUCT  -------     1
  GCR. . . . . . . . . . . . . . . . .  MEMBER  -----   U_CHAR  000000H     1
CFG_TypeDef. . . . . . . . . . . . . .  TYPEDEF ------- STRUCT   -------     1
  GCR. . . . . . . . . . . . . . . . .  MEMBER  -----   U_CHAR  000000H     1
CLK_SWITCHMODE_MANUAL. . . . . . . . . E_CONST  ----- INT      -------  2
CLK_SWITCHMODE_AUTO. . . . . . . . . . E_CONST  ----- INT      -------  2
CLK_SwitchMode_TypeDef . . . . . . . .  TYPEDEF ------- INT   -------     2
CLK_CURRENTCLOCKSTATE_DISABLE. . . . . E_CONST  ----- INT      -------  2
CLK_CURRENTCLOCKSTATE_ENABLE . . . . . E_CONST  ----- INT      -------  2
CLK_CurrentClockState_TypeDef. . . . .  TYPEDEF ------- INT   -------     2
CLK_CSSCONFIG_ENABLEWITHIT . . . . . . E_CONST  ----- INT      -------  2
CLK_CSSCONFIG_ENABLE . . . . . . . . . E_CONST  ----- INT      -------  2
CLK_CSSCONFIG_DISABLE. . . . . . . . . E_CONST  ----- INT      -------  2
CLK_CSSConfig_TypeDef. . . . . . . . .  TYPEDEF ------- INT   -------     2
CLK_SOURCE_HSI . . . . . . . . . . . . E_CONST  ----- INT      -------  2
CLK_SOURCE_LSI . . . . . . . . . . . . E_CONST  ----- INT      -------  2
CLK_SOURCE_HSE . . . . . . . . . . . . E_CONST  ----- INT      -------  2
CLK_Source_TypeDef . . . . . . . . . .  TYPEDEF ------- INT   -------     2
CLK_HSITRIMVALUE_0 . . . . . . . . . . E_CONST  ----- INT      -------  2
CLK_HSITRIMVALUE_1 . . . . . . . . . . E_CONST  ----- INT      -------  2
CLK_HSITRIMVALUE_2 . . . . . . . . . . E_CONST  ----- INT      -------  2
CLK_HSITRIMVALUE_3 . . . . . . . . . . E_CONST  ----- INT      -------  2
CLK_HSITRIMVALUE_4 . . . . . . . . . . E_CONST  ----- INT      -------  2
CLK_HSITRIMVALUE_5 . . . . . . . . . . E_CONST  ----- INT      -------  2
CLK_HSITRIMVALUE_6 . . . . . . . . . . E_CONST  ----- INT      -------  2
CLK_HSITRIMVALUE_7 . . . . . . . . . . E_CONST  ----- INT      -------  2
CLK_HSITrimValue_TypeDef . . . . . . .  TYPEDEF ------- INT   -------     2
CLK_OUTPUT_HSI . . . . . . . . . . . . E_CONST  ----- INT      -------  2
CLK_OUTPUT_LSI . . . . . . . . . . . . E_CONST  ----- INT      -------  2
CLK_OUTPUT_HSE . . . . . . . . . . . . E_CONST  ----- INT      -------  2
CLK_OUTPUT_CPU . . . . . . . . . . . . E_CONST  ----- INT      -------  2
CLK_OUTPUT_CPUDIV2 . . . . . . . . . . E_CONST  ----- INT      -------  2
CLK_OUTPUT_CPUDIV4 . . . . . . . . . . E_CONST  ----- INT      -------  2
CLK_OUTPUT_CPUDIV8 . . . . . . . . . . E_CONST  ----- INT      -------  2
CLK_OUTPUT_CPUDIV16. . . . . . . . . . E_CONST  ----- INT      -------  2
CLK_OUTPUT_CPUDIV32. . . . . . . . . . E_CONST  ----- INT      -------  2
CLK_OUTPUT_CPUDIV64. . . . . . . . . . E_CONST  ----- INT      -------  2
CLK_OUTPUT_HSIRC . . . . . . . . . . . E_CONST  ----- INT      -------  2
CLK_OUTPUT_MASTER. . . . . . . . . . . E_CONST  ----- INT      -------  2
CLK_OUTPUT_OTHERS. . . . . . . . . . . E_CONST  ----- INT      -------  2
CLK_Output_TypeDef . . . . . . . . . .  TYPEDEF ------- INT   -------     2
CLK_PERIPHERAL_I2C . . . . . . . . . . E_CONST  ----- INT      -------  2
CLK_PERIPHERAL_SPI . . . . . . . . . . E_CONST  ----- INT      -------  2
CLK_PERIPHERAL_UART1 . . . . . . . . . E_CONST  ----- INT      -------  2
CLK_PERIPHERAL_UART2 . . . . . . . . . E_CONST  ----- INT      -------  2
CLK_PERIPHERAL_UART3 . . . . . . . . . E_CONST  ----- INT      -------  2
CLK_PERIPHERAL_TIMER6. . . . . . . . . E_CONST  ----- INT      -------  2
CLK_PERIPHERAL_TIMER4. . . . . . . . . E_CONST  ----- INT      -------  2
CLK_PERIPHERAL_TIMER5. . . . . . . . . E_CONST  ----- INT      -------  2
CLK_PERIPHERAL_TIMER2. . . . . . . . . E_CONST  ----- INT      -------  2
CLK_PERIPHERAL_TIMER3. . . . . . . . . E_CONST  ----- INT      -------  2
CLK_PERIPHERAL_TIMER1. . . . . . . . . E_CONST  ----- INT      -------  2
CLK_PERIPHERAL_AWU . . . . . . . . . . E_CONST  ----- INT      -------  2
CLK_PERIPHERAL_ADC . . . . . . . . . . E_CONST  ----- INT      -------  2
CLK_PERIPHERAL_CAN . . . . . . . . . . E_CONST  ----- INT      -------  2
CLK_Peripheral_TypeDef . . . . . . . .  TYPEDEF ------- INT   -------     2
CLK_FLAG_LSIRDY. . . . . . . . . . . . E_CONST  ----- INT      -------  2
CLK_FLAG_HSIRDY. . . . . . . . . . . . E_CONST  ----- INT      -------  2
CLK_FLAG_HSERDY. . . . . . . . . . . . E_CONST  ----- INT      -------  2
CLK_FLAG_SWIF. . . . . . . . . . . . . E_CONST  ----- INT      -------  2
CLK_FLAG_SWBSY . . . . . . . . . . . . E_CONST  ----- INT      -------  2
CLK_FLAG_CSSD. . . . . . . . . . . . . E_CONST  ----- INT      -------  2
CLK_FLAG_AUX . . . . . . . . . . . . . E_CONST  ----- INT      -------  2
CLK_FLAG_CCOBSY. . . . . . . . . . . . E_CONST  ----- INT      -------  2
CLK_FLAG_CCORDY. . . . . . . . . . . . E_CONST  ----- INT      -------  2
CLK_Flag_TypeDef . . . . . . . . . . .  TYPEDEF ------- INT   -------     2
CLK_IT_CSSD. . . . . . . . . . . . . . E_CONST  ----- INT      -------  2
CLK_IT_SWIF. . . . . . . . . . . . . . E_CONST  ----- INT      -------  2
CLK_IT_TypeDef . . . . . . . . . . . .  TYPEDEF ------- INT   -------     2
CLK_PRESCALER_HSIDIV1. . . . . . . . . E_CONST  ----- INT      -------  2
CLK_PRESCALER_HSIDIV2. . . . . . . . . E_CONST  ----- INT      -------  2
CLK_PRESCALER_HSIDIV4. . . . . . . . . E_CONST  ----- INT      -------  2
CLK_PRESCALER_HSIDIV8. . . . . . . . . E_CONST  ----- INT      -------  2
CLK_PRESCALER_CPUDIV1. . . . . . . . . E_CONST  ----- INT      -------  2
CLK_PRESCALER_CPUDIV2. . . . . . . . . E_CONST  ----- INT      -------  2
CLK_PRESCALER_CPUDIV4. . . . . . . . . E_CONST  ----- INT      -------  2
CLK_PRESCALER_CPUDIV8. . . . . . . . . E_CONST  ----- INT      -------  2
CLK_PRESCALER_CPUDIV16 . . . . . . . . E_CONST  ----- INT      -------  2
CLK_PRESCALER_CPUDIV32 . . . . . . . . E_CONST  ----- INT      -------  2
CLK_PRESCALER_CPUDIV64 . . . . . . . . E_CONST  ----- INT      -------  2
CLK_PRESCALER_CPUDIV128. . . . . . . . E_CONST  ----- INT      -------  2
CLK_Prescaler_TypeDef. . . . . . . . .  TYPEDEF ------- INT   -------     2
CLK_SWIMDIVIDER_2. . . . . . . . . . . E_CONST  ----- INT      -------  2
CLK_SWIMDIVIDER_OTHER. . . . . . . . . E_CONST  ----- INT      -------  2
CLK_SWIMDivider_TypeDef. . . . . . . .  TYPEDEF ------- INT   -------     2
CLK_DeInit . . . . . . . . . . . . . .  EXTERN  CODE    PROC    ------- -----
CLK_HSECmd . . . . . . . . . . . . . .  EXTERN  CODE    PROC    ------- -----
CLK_HSICmd . . . . . . . . . . . . . .  EXTERN  CODE    PROC    ------- -----
CLK_LSICmd . . . . . . . . . . . . . .  EXTERN  CODE    PROC    ------- -----
CLK_CCOCmd . . . . . . . . . . . . . .  EXTERN  CODE    PROC    ------- -----
CLK_ClockSwitchCmd . . . . . . . . . .  EXTERN  CODE    PROC    ------- -----
CLK_FastHaltWakeUpCmd. . . . . . . . .  EXTERN  CODE    PROC    ------- -----
CLK_SlowActiveHaltWakeUpCmd. . . . . .  EXTERN  CODE    PROC    ------- -----
CLK_PeripheralClockConfig. . . . . . .  EXTERN  CODE    PROC    ------- -----
CLK_ClockSwitchConfig. . . . . . . . .  EXTERN  CODE    PROC    ------- -----
CLK_HSIPrescalerConfig . . . . . . . .  EXTERN  CODE    PROC    ------- -----
CLK_CCOConfig. . . . . . . . . . . . .  EXTERN  CODE    PROC    ------- -----
CLK_ITConfig . . . . . . . . . . . . .  EXTERN  CODE    PROC    ------- -----
CLK_SYSCLKConfig . . . . . . . . . . .  EXTERN  CODE    PROC    ------- -----
CLK_SWIMConfig . . . . . . . . . . . .  EXTERN  CODE    PROC    ------- -----
CLK_ClockSecuritySystemEnable. . . . .  EXTERN  CODE    PROC    ------- -----
CLK_SYSCLKEmergencyClear . . . . . . .  EXTERN  CODE    PROC    ------- -----
CLK_AdjustHSICalibrationValue. . . . .  EXTERN  CODE    PROC    ------- -----
CLK_GetClockFreq . . . . . . . . . . .  EXTERN  CODE    PROC    ------- -----
CLK_GetSYSCLKSource. . . . . . . . . .  EXTERN  CODE    PROC    ------- -----
CLK_GetFlagStatus. . . . . . . . . . .  EXTERN  CODE    PROC    ------- -----
CLK_GetITStatus. . . . . . . . . . . .  EXTERN  CODE    PROC    ------- -----
CLK_ClearITPendingBit. . . . . . . . .  EXTERN  CODE    PROC    ------- -----
EXTI_SENSITIVITY_FALL_LOW. . . . . . . E_CONST  ----- INT      -------  2
EXTI_SENSITIVITY_RISE_ONLY . . . . . . E_CONST  ----- INT      -------  2
EXTI_SENSITIVITY_FALL_ONLY . . . . . . E_CONST  ----- INT      -------  2
EXTI_SENSITIVITY_RISE_FALL . . . . . . E_CONST  ----- INT      -------  2
EXTI_Sensitivity_TypeDef . . . . . . .  TYPEDEF ------- INT   -------     2
EXTI_TLISENSITIVITY_FALL_ONLY. . . . . E_CONST  ----- INT      -------  2
EXTI_TLISENSITIVITY_RISE_ONLY. . . . . E_CONST  ----- INT      -------  2
EXTI_TLISensitivity_TypeDef. . . . . .  TYPEDEF ------- INT   -------     2
EXTI_PORT_GPIOA. . . . . . . . . . . . E_CONST  ----- INT      -------  2
EXTI_PORT_GPIOB. . . . . . . . . . . . E_CONST  ----- INT      -------  2
EXTI_PORT_GPIOC. . . . . . . . . . . . E_CONST  ----- INT      -------  2
EXTI_PORT_GPIOD. . . . . . . . . . . . E_CONST  ----- INT      -------  2
EXTI_PORT_GPIOE. . . . . . . . . . . . E_CONST  ----- INT      -------  2
EXTI_Port_TypeDef. . . . . . . . . . .  TYPEDEF ------- INT   -------     2
EXTI_DeInit. . . . . . . . . . . . . .  EXTERN  CODE    PROC    ------- -----
EXTI_SetExtIntSensitivity. . . . . . .  EXTERN  CODE    PROC    ------- -----
EXTI_SetTLISensitivity . . . . . . . .  EXTERN  CODE    PROC    ------- -----
EXTI_GetExtIntSensitivity. . . . . . .  EXTERN  CODE    PROC    ------- -----
EXTI_GetTLISensitivity . . . . . . . .  EXTERN  CODE    PROC    ------- -----
GPIO_MODE_IN_FL_NO_IT. . . . . . . . . E_CONST  ----- INT      -------  2
GPIO_MODE_IN_PU_NO_IT. . . . . . . . . E_CONST  ----- INT      -------  2
GPIO_MODE_IN_FL_IT . . . . . . . . . . E_CONST  ----- INT      -------  2
GPIO_MODE_IN_PU_IT . . . . . . . . . . E_CONST  ----- INT      -------  2
GPIO_MODE_OUT_OD_LOW_FAST. . . . . . . E_CONST  ----- INT      -------  2
GPIO_MODE_OUT_PP_LOW_FAST. . . . . . . E_CONST  ----- INT      -------  2
GPIO_MODE_OUT_OD_LOW_SLOW. . . . . . . E_CONST  ----- INT      -------  2
GPIO_MODE_OUT_PP_LOW_SLOW. . . . . . . E_CONST  ----- INT      -------  2
GPIO_MODE_OUT_OD_HIZ_FAST. . . . . . . E_CONST  ----- INT      -------  2
GPIO_MODE_OUT_PP_HIGH_FAST . . . . . . E_CONST  ----- INT      -------  2
GPIO_MODE_OUT_OD_HIZ_SLOW. . . . . . . E_CONST  ----- INT      -------  2
GPIO_MODE_OUT_PP_HIGH_SLOW . . . . . . E_CONST  ----- INT      -------  2
GPIO_Mode_TypeDef. . . . . . . . . . .  TYPEDEF ------- INT   -------     2
GPIO_PIN_0 . . . . . . . . . . . . . . E_CONST  ----- INT      -------  2
GPIO_PIN_1 . . . . . . . . . . . . . . E_CONST  ----- INT      -------  2
GPIO_PIN_2 . . . . . . . . . . . . . . E_CONST  ----- INT      -------  2
GPIO_PIN_3 . . . . . . . . . . . . . . E_CONST  ----- INT      -------  2
GPIO_PIN_4 . . . . . . . . . . . . . . E_CONST  ----- INT      -------  2
GPIO_PIN_5 . . . . . . . . . . . . . . E_CONST  ----- INT      -------  2
GPIO_PIN_6 . . . . . . . . . . . . . . E_CONST  ----- INT      -------  2
GPIO_PIN_7 . . . . . . . . . . . . . . E_CONST  ----- INT      -------  2
GPIO_PIN_LNIB. . . . . . . . . . . . . E_CONST  ----- INT      -------  2
GPIO_PIN_HNIB. . . . . . . . . . . . . E_CONST  ----- INT      -------  2
GPIO_PIN_ALL . . . . . . . . . . . . . E_CONST  ----- INT      -------  2
GPIO_Pin_TypeDef . . . . . . . . . . .  TYPEDEF ------- INT   -------     2
GPIO_DeInit. . . . . . . . . . . . . .  EXTERN  CODE    PROC    ------- -----
GPIO_Init. . . . . . . . . . . . . . .  EXTERN  CODE    PROC    ------- -----
GPIO_Write . . . . . . . . . . . . . .  EXTERN  CODE    PROC    ------- -----
GPIO_WriteHigh . . . . . . . . . . . .  EXTERN  CODE    PROC    ------- -----
GPIO_WriteLow. . . . . . . . . . . . .  EXTERN  CODE    PROC    ------- -----
GPIO_WriteReverse. . . . . . . . . . .  EXTERN  CODE    PROC    ------- -----
GPIO_ReadInputData . . . . . . . . . .  EXTERN  CODE    PROC    ------- -----
GPIO_ReadOutputData. . . . . . . . . .  EXTERN  CODE    PROC    ------- -----
GPIO_ReadInputPin. . . . . . . . . . .  EXTERN  CODE    PROC    ------- -----
GPIO_ExternalPullUpConfig. . . . . . .  EXTERN  CODE    PROC    ------- -----
SPI_DATADIRECTION_2LINES_FULLDUPLEX. . E_CONST  ----- INT      -------  2
SPI_DATADIRECTION_2LINES_RXONLY. . . . E_CONST  ----- INT      -------  2
SPI_DATADIRECTION_1LINE_RX . . . . . . E_CONST  ----- INT      -------  2
SPI_DATADIRECTION_1LINE_TX . . . . . . E_CONST  ----- INT      -------  2
SPI_DataDirection_TypeDef. . . . . . .  TYPEDEF ------- INT   -------     2
SPI_NSS_SOFT . . . . . . . . . . . . . E_CONST  ----- INT      -------  2
SPI_NSS_HARD . . . . . . . . . . . . . E_CONST  ----- INT      -------  2
SPI_NSS_TypeDef. . . . . . . . . . . .  TYPEDEF ------- INT   -------     2
SPI_DIRECTION_RX . . . . . . . . . . . E_CONST  ----- INT      -------  2
SPI_DIRECTION_TX . . . . . . . . . . . E_CONST  ----- INT      -------  2
SPI_Direction_TypeDef. . . . . . . . .  TYPEDEF ------- INT   -------     2
SPI_MODE_MASTER. . . . . . . . . . . . E_CONST  ----- INT      -------  2
SPI_MODE_SLAVE . . . . . . . . . . . . E_CONST  ----- INT      -------  2
SPI_Mode_TypeDef . . . . . . . . . . .  TYPEDEF ------- INT   -------     2
SPI_BAUDRATEPRESCALER_2. . . . . . . . E_CONST  ----- INT      -------  2
SPI_BAUDRATEPRESCALER_4. . . . . . . . E_CONST  ----- INT      -------  2
SPI_BAUDRATEPRESCALER_8. . . . . . . . E_CONST  ----- INT      -------  2
SPI_BAUDRATEPRESCALER_16 . . . . . . . E_CONST  ----- INT      -------  2
SPI_BAUDRATEPRESCALER_32 . . . . . . . E_CONST  ----- INT      -------  2
SPI_BAUDRATEPRESCALER_64 . . . . . . . E_CONST  ----- INT      -------  2
SPI_BAUDRATEPRESCALER_128. . . . . . . E_CONST  ----- INT      -------  2
SPI_BAUDRATEPRESCALER_256. . . . . . . E_CONST  ----- INT      -------  2
SPI_BaudRatePrescaler_TypeDef. . . . .  TYPEDEF ------- INT   -------     2
SPI_CLOCKPOLARITY_LOW. . . . . . . . . E_CONST  ----- INT      -------  2
SPI_CLOCKPOLARITY_HIGH . . . . . . . . E_CONST  ----- INT      -------  2
SPI_ClockPolarity_TypeDef. . . . . . .  TYPEDEF ------- INT   -------     2
SPI_CLOCKPHASE_1EDGE . . . . . . . . . E_CONST  ----- INT      -------  2
SPI_CLOCKPHASE_2EDGE . . . . . . . . . E_CONST  ----- INT      -------  2
SPI_ClockPhase_TypeDef . . . . . . . .  TYPEDEF ------- INT   -------     2
SPI_FIRSTBIT_MSB . . . . . . . . . . . E_CONST  ----- INT      -------  2
SPI_FIRSTBIT_LSB . . . . . . . . . . . E_CONST  ----- INT      -------  2
SPI_FirstBit_TypeDef . . . . . . . . .  TYPEDEF ------- INT   -------     2
SPI_CRC_RX . . . . . . . . . . . . . . E_CONST  ----- INT      -------  2
SPI_CRC_TX . . . . . . . . . . . . . . E_CONST  ----- INT      -------  2
SPI_CRC_TypeDef. . . . . . . . . . . .  TYPEDEF ------- INT   -------     2
SPI_FLAG_BSY . . . . . . . . . . . . . E_CONST  ----- INT      -------  2
SPI_FLAG_OVR . . . . . . . . . . . . . E_CONST  ----- INT      -------  2
SPI_FLAG_MODF. . . . . . . . . . . . . E_CONST  ----- INT      -------  2
SPI_FLAG_CRCERR. . . . . . . . . . . . E_CONST  ----- INT      -------  2
SPI_FLAG_WKUP. . . . . . . . . . . . . E_CONST  ----- INT      -------  2
SPI_FLAG_TXE . . . . . . . . . . . . . E_CONST  ----- INT      -------  2
SPI_FLAG_RXNE. . . . . . . . . . . . . E_CONST  ----- INT      -------  2
SPI_Flag_TypeDef . . . . . . . . . . .  TYPEDEF ------- INT   -------     2
SPI_IT_WKUP. . . . . . . . . . . . . . E_CONST  ----- INT      -------  2
SPI_IT_OVR . . . . . . . . . . . . . . E_CONST  ----- INT      -------  2
SPI_IT_MODF. . . . . . . . . . . . . . E_CONST  ----- INT      -------  2
SPI_IT_CRCERR. . . . . . . . . . . . . E_CONST  ----- INT      -------  2
SPI_IT_TXE . . . . . . . . . . . . . . E_CONST  ----- INT      -------  2
SPI_IT_RXNE. . . . . . . . . . . . . . E_CONST  ----- INT      -------  2
SPI_IT_ERR . . . . . . . . . . . . . . E_CONST  ----- INT      -------  2
SPI_IT_TypeDef . . . . . . . . . . . .  TYPEDEF ------- INT   -------     2
SPI_DeInit . . . . . . . . . . . . . .  EXTERN  CODE    PROC    ------- -----
SPI_Init . . . . . . . . . . . . . . .  EXTERN  CODE    PROC    ------- -----
SPI_Cmd. . . . . . . . . . . . . . . .  EXTERN  CODE    PROC    ------- -----
SPI_ITConfig . . . . . . . . . . . . .  EXTERN  CODE    PROC    ------- -----
SPI_SendData . . . . . . . . . . . . .  EXTERN  CODE    PROC    ------- -----
SPI_ReceiveData. . . . . . . . . . . .  EXTERN  CODE    PROC    ------- -----
SPI_NSSInternalSoftwareCmd . . . . . .  EXTERN  CODE    PROC    ------- -----
SPI_TransmitCRC. . . . . . . . . . . .  EXTERN  CODE    PROC    ------- -----
SPI_CalculateCRCCmd. . . . . . . . . .  EXTERN  CODE    PROC    ------- -----
SPI_GetCRC . . . . . . . . . . . . . .  EXTERN  CODE    PROC    ------- -----
SPI_ResetCRC . . . . . . . . . . . . .  EXTERN  CODE    PROC    ------- -----
SPI_GetCRCPolynomial . . . . . . . . .  EXTERN  CODE    PROC    ------- -----
SPI_BiDirectionalLineConfig. . . . . .  EXTERN  CODE    PROC    ------- -----
SPI_GetFlagStatus. . . . . . . . . . .  EXTERN  CODE    PROC    ------- -----
SPI_ClearFlag. . . . . . . . . . . . .  EXTERN  CODE    PROC    ------- -----
SPI_GetITStatus. . . . . . . . . . . .  EXTERN  CODE    PROC    ------- -----
SPI_ClearITPendingBit. . . . . . . . .  EXTERN  CODE    PROC    ------- -----
TIM4_PRESCALER_1 . . . . . . . . . . . E_CONST  ----- INT      -------  2
TIM4_PRESCALER_2 . . . . . . . . . . . E_CONST  ----- INT      -------  2
TIM4_PRESCALER_4 . . . . . . . . . . . E_CONST  ----- INT      -------  2
TIM4_PRESCALER_8 . . . . . . . . . . . E_CONST  ----- INT      -------  2
TIM4_PRESCALER_16. . . . . . . . . . . E_CONST  ----- INT      -------  2
TIM4_PRESCALER_32. . . . . . . . . . . E_CONST  ----- INT      -------  2
TIM4_PRESCALER_64. . . . . . . . . . . E_CONST  ----- INT      -------  2
TIM4_PRESCALER_128 . . . . . . . . . . E_CONST  ----- INT      -------  2
TIM4_Prescaler_TypeDef . . . . . . . .  TYPEDEF ------- INT   -------     2
TIM4_OPMODE_SINGLE . . . . . . . . . . E_CONST  ----- INT      -------  2
TIM4_OPMODE_REPETITIVE . . . . . . . . E_CONST  ----- INT      -------  2
TIM4_OPMode_TypeDef. . . . . . . . . .  TYPEDEF ------- INT   -------     2
TIM4_PSCRELOADMODE_UPDATE. . . . . . . E_CONST  ----- INT      -------  2
TIM4_PSCRELOADMODE_IMMEDIATE . . . . . E_CONST  ----- INT      -------  2
TIM4_PSCReloadMode_TypeDef . . . . . .  TYPEDEF ------- INT   -------     2
TIM4_UPDATESOURCE_GLOBAL . . . . . . . E_CONST  ----- INT      -------  2
TIM4_UPDATESOURCE_REGULAR. . . . . . . E_CONST  ----- INT      -------  2
TIM4_UpdateSource_TypeDef. . . . . . .  TYPEDEF ------- INT   -------     2
TIM4_EVENTSOURCE_UPDATE. . . . . . . . E_CONST  ----- INT      -------  2
TIM4_EventSource_TypeDef . . . . . . .  TYPEDEF ------- INT   -------     2
TIM4_FLAG_UPDATE . . . . . . . . . . . E_CONST  ----- INT      -------  2
TIM4_FLAG_TypeDef. . . . . . . . . . .  TYPEDEF ------- INT   -------     2
TIM4_IT_UPDATE . . . . . . . . . . . . E_CONST  ----- INT      -------  2
TIM4_IT_TypeDef. . . . . . . . . . . .  TYPEDEF ------- INT   -------     2
TIM4_DeInit. . . . . . . . . . . . . .  EXTERN  CODE    PROC    ------- -----
TIM4_TimeBaseInit. . . . . . . . . . .  EXTERN  CODE    PROC    ------- -----
TIM4_Cmd . . . . . . . . . . . . . . .  EXTERN  CODE    PROC    ------- -----
TIM4_ITConfig. . . . . . . . . . . . .  EXTERN  CODE    PROC    ------- -----
TIM4_UpdateDisableConfig . . . . . . .  EXTERN  CODE    PROC    ------- -----
TIM4_UpdateRequestConfig . . . . . . .  EXTERN  CODE    PROC    ------- -----
TIM4_SelectOnePulseMode. . . . . . . .  EXTERN  CODE    PROC    ------- -----
TIM4_PrescalerConfig . . . . . . . . .  EXTERN  CODE    PROC    ------- -----
TIM4_ARRPreloadConfig. . . . . . . . .  EXTERN  CODE    PROC    ------- -----
TIM4_GenerateEvent . . . . . . . . . .  EXTERN  CODE    PROC    ------- -----
TIM4_SetCounter. . . . . . . . . . . .  EXTERN  CODE    PROC    ------- -----
TIM4_SetAutoreload . . . . . . . . . .  EXTERN  CODE    PROC    ------- -----
TIM4_GetCounter. . . . . . . . . . . .  EXTERN  CODE    PROC    ------- -----
TIM4_GetPrescaler. . . . . . . . . . .  EXTERN  CODE    PROC    ------- -----
TIM4_GetFlagStatus . . . . . . . . . .  EXTERN  CODE    PROC    ------- -----
TIM4_ClearFlag . . . . . . . . . . . .  EXTERN  CODE    PROC    ------- -----
TIM4_GetITStatus . . . . . . . . . . .  EXTERN  CODE    PROC    ------- -----
TIM4_ClearITPendingBit . . . . . . . .  EXTERN  CODE    PROC    ------- -----
UART3_WAKEUP_IDLELINE. . . . . . . . . E_CONST  ----- INT      -------  2
UART3_WAKEUP_ADDRESSMARK . . . . . . . E_CONST  ----- INT      -------  2
UART3_WakeUp_TypeDef . . . . . . . . .  TYPEDEF ------- INT   -------     2
UART3_LINBREAKDETECTIONLENGTH_10BITS . E_CONST  ----- INT      -------  2
UART3_LINBREAKDETECTIONLENGTH_11BITS . E_CONST  ----- INT      -------  2
UART3_LINBreakDetectionLength_TypeDef.  TYPEDEF ------- INT   -------     2
UART3_STOPBITS_1 . . . . . . . . . . . E_CONST  ----- INT      -------  2
UART3_STOPBITS_2 . . . . . . . . . . . E_CONST  ----- INT      -------  2
UART3_StopBits_TypeDef . . . . . . . .  TYPEDEF ------- INT   -------     2
UART3_PARITY_NO. . . . . . . . . . . . E_CONST  ----- INT      -------  2
UART3_PARITY_EVEN. . . . . . . . . . . E_CONST  ----- INT      -------  2
UART3_PARITY_ODD . . . . . . . . . . . E_CONST  ----- INT      -------  2
UART3_Parity_TypeDef . . . . . . . . .  TYPEDEF ------- INT   -------     2
UART3_WORDLENGTH_8D. . . . . . . . . . E_CONST  ----- INT      -------  2
UART3_WORDLENGTH_9D. . . . . . . . . . E_CONST  ----- INT      -------  2
UART3_WordLength_TypeDef . . . . . . .  TYPEDEF ------- INT   -------     2
UART3_MODE_RX_ENABLE . . . . . . . . . E_CONST  ----- INT      -------  2
UART3_MODE_TX_ENABLE . . . . . . . . . E_CONST  ----- INT      -------  2
UART3_MODE_TX_DISABLE. . . . . . . . . E_CONST  ----- INT      -------  2
UART3_MODE_RX_DISABLE. . . . . . . . . E_CONST  ----- INT      -------  2
UART3_MODE_TXRX_ENABLE . . . . . . . . E_CONST  ----- INT      -------  2
UART3_Mode_TypeDef . . . . . . . . . .  TYPEDEF ------- INT   -------     2
UART3_LIN_MODE_MASTER. . . . . . . . . E_CONST  ----- INT      -------  2
UART3_LIN_MODE_SLAVE . . . . . . . . . E_CONST  ----- INT      -------  2
UART3_LinMode_TypeDef. . . . . . . . .  TYPEDEF ------- INT   -------     2
UART3_LIN_AUTOSYNC_DISABLE . . . . . . E_CONST  ----- INT      -------  2
UART3_LIN_AUTOSYNC_ENABLE. . . . . . . E_CONST  ----- INT      -------  2
UART3_LinAutosync_TypeDef. . . . . . .  TYPEDEF ------- INT   -------     2
UART3_LIN_DIVUP_LBRR1. . . . . . . . . E_CONST  ----- INT      -------  2
UART3_LIN_DIVUP_NEXTRXNE . . . . . . . E_CONST  ----- INT      -------  2
UART3_LinDivUp_TypeDef . . . . . . . .  TYPEDEF ------- INT   -------     2
UART3_FLAG_TXE . . . . . . . . . . . . E_CONST  ----- INT      -------  2
UART3_FLAG_TC. . . . . . . . . . . . . E_CONST  ----- INT      -------  2
UART3_FLAG_RXNE. . . . . . . . . . . . E_CONST  ----- INT      -------  2
UART3_FLAG_IDLE. . . . . . . . . . . . E_CONST  ----- INT      -------  2
UART3_FLAG_OR_LHE. . . . . . . . . . . E_CONST  ----- INT      -------  2
UART3_FLAG_NF. . . . . . . . . . . . . E_CONST  ----- INT      -------  2
UART3_FLAG_FE. . . . . . . . . . . . . E_CONST  ----- INT      -------  2
UART3_FLAG_PE. . . . . . . . . . . . . E_CONST  ----- INT      -------  2
UART3_FLAG_SBK . . . . . . . . . . . . E_CONST  ----- INT      -------  2
UART3_FLAG_LBDF. . . . . . . . . . . . E_CONST  ----- INT      -------  2
UART3_FLAG_LHDF. . . . . . . . . . . . E_CONST  ----- INT      -------  2
UART3_FLAG_LSF . . . . . . . . . . . . E_CONST  ----- INT      -------  2
UART3_Flag_TypeDef . . . . . . . . . .  TYPEDEF ------- INT   -------     2
UART3_IT_TXE . . . . . . . . . . . . . E_CONST  ----- INT      -------  2
UART3_IT_TC. . . . . . . . . . . . . . E_CONST  ----- INT      -------  2
UART3_IT_RXNE. . . . . . . . . . . . . E_CONST  ----- INT      -------  2
UART3_IT_IDLE. . . . . . . . . . . . . E_CONST  ----- INT      -------  2
UART3_IT_OR. . . . . . . . . . . . . . E_CONST  ----- INT      -------  2
UART3_IT_PE. . . . . . . . . . . . . . E_CONST  ----- INT      -------  2
UART3_IT_LBDF. . . . . . . . . . . . . E_CONST  ----- INT      -------  2
UART3_IT_LHDF. . . . . . . . . . . . . E_CONST  ----- INT      -------  2
UART3_IT_RXNE_OR . . . . . . . . . . . E_CONST  ----- INT      -------  2
UART3_IT_TypeDef . . . . . . . . . . .  TYPEDEF ------- INT   -------     2
UART3_DeInit . . . . . . . . . . . . .  EXTERN  CODE    PROC    ------- -----
UART3_Init . . . . . . . . . . . . . .  EXTERN  CODE    PROC    ------- -----
UART3_Cmd. . . . . . . . . . . . . . .  EXTERN  CODE    PROC    ------- -----
UART3_ITConfig . . . . . . . . . . . .  EXTERN  CODE    PROC    ------- -----
UART3_LINBreakDetectionConfig. . . . .  EXTERN  CODE    PROC    ------- -----
UART3_LINConfig. . . . . . . . . . . .  EXTERN  CODE    PROC    ------- -----
UART3_LINCmd . . . . . . . . . . . . .  EXTERN  CODE    PROC    ------- -----
UART3_ReceiverWakeUpCmd. . . . . . . .  EXTERN  CODE    PROC    ------- -----
UART3_WakeUpConfig . . . . . . . . . .  EXTERN  CODE    PROC    ------- -----
UART3_ReceiveData8 . . . . . . . . . .  EXTERN  CODE    PROC    ------- -----
UART3_ReceiveData9 . . . . . . . . . .  EXTERN  CODE    PROC    ------- -----
UART3_SendData8. . . . . . . . . . . .  EXTERN  CODE    PROC    ------- -----
UART3_SendData9. . . . . . . . . . . .  EXTERN  CODE    PROC    ------- -----
UART3_SendBreak. . . . . . . . . . . .  EXTERN  CODE    PROC    ------- -----
UART3_SetAddress . . . . . . . . . . .  EXTERN  CODE    PROC    ------- -----
UART3_GetFlagStatus. . . . . . . . . .  EXTERN  CODE    PROC    ------- -----
UART3_ClearFlag. . . . . . . . . . . .  EXTERN  CODE    PROC    ------- -----
UART3_GetITStatus. . . . . . . . . . .  EXTERN  CODE    PROC    ------- -----
UART3_ClearITPendingBit. . . . . . . .  EXTERN  CODE    PROC    ------- -----
assert_failed. . . . . . . . . . . . .  EXTERN  CODE    PROC    ------- -----
_fctptr_t. . . . . . . . . . . . . . .  TYPEDEF ------- PTR     -------     2
_halt_ . . . . . . . . . . . . . . . .  EXTERN  CODE    PROC    ------- -----
_jmp_. . . . . . . . . . . . . . . . .  EXTERN  CODE    PROC    ------- -----
_nop_. . . . . . . . . . . . . . . . .  EXTERN  CODE    PROC    ------- -----
_rim_. . . . . . . . . . . . . . . . .  EXTERN  CODE    PROC    ------- -----
_sim_. . . . . . . . . . . . . . . . .  EXTERN  CODE    PROC    ------- -----
_trap_ . . . . . . . . . . . . . . . .  EXTERN  CODE    PROC    ------- -----
_wfe_. . . . . . . . . . . . . . . . .  EXTERN  CODE    PROC    ------- -----
_wfi_. . . . . . . . . . . . . . . . .  EXTERN  CODE    PROC    ------- -----
_getCC_. . . . . . . . . . . . . . . .  EXTERN  CODE    PROC    ------- -----
_setCC_. . . . . . . . . . . . . . . .  EXTERN  CODE    PROC    ------- -----
_getSP_. . . . . . . . . . . . . . . .  EXTERN  CODE    PROC    ------- -----
_setSP_. . . . . . . . . . . . . . . .  EXTERN  CODE    PROC    ------- -----
_swapbyte_ . . . . . . . . . . . . . .  EXTERN  CODE    PROC    ------- -----
_swapnibble_ . . . . . . . . . . . . .  EXTERN  CODE    PROC    ------- -----
L99PM62DRV_STANDBYMODE_V1. . . . . . . E_CONST  ----- INT      -------  2
L99PM62DRV_STANDBYMODE_VBAT. . . . . . E_CONST  ----- INT      -------  2
L99PM62drv_StandbyModeType . . . . . .  TYPEDEF ------- INT   -------     2
L99PM62DRV_OUT1_MODE_PWM1. . . . . . . E_CONST  ----- INT      -------  2
L99PM62DRV_OUT1_MODE_TIMER1. . . . . . E_CONST  ----- INT      -------  2
L99PM62drv_Out1ModeType. . . . . . . .  TYPEDEF ------- INT   -------     2
L99PM62DRV_OUT2_MODE_PWM2. . . . . . . E_CONST  ----- INT      -------  2
L99PM62DRV_OUT2_MODE_TIMER2. . . . . . E_CONST  ----- INT      -------  2
L99PM62drv_Out2ModeType. . . . . . . .  TYPEDEF ------- INT   -------     2
L99PM62DRV_OUT3_MODE_FSO . . . . . . . E_CONST  ----- INT      -------  2
L99PM62DRV_OUT3_MODE_PWM3. . . . . . . E_CONST  ----- INT      -------  2
L99PM62drv_Out3ModeType. . . . . . . .  TYPEDEF ------- INT   -------     2
L99PM62DRV_OUT4_MODE_OFF . . . . . . . E_CONST  ----- INT      -------  2
L99PM62DRV_OUT4_MODE_ON. . . . . . . . E_CONST  ----- INT      -------  2
L99PM62DRV_OUT4_MODE_PWM4. . . . . . . E_CONST  ----- INT      -------  2
L99PM62DRV_OUT4_MODE_TIMER2. . . . . . E_CONST  ----- INT      -------  2
L99PM62drv_Out4ModeType. . . . . . . .  TYPEDEF ------- INT   -------     2
L99PM62DRV_OUTHS_MODE_OFF. . . . . . . E_CONST  ----- INT      -------  2
L99PM62DRV_OUTHS_MODE_TIMER1 . . . . . E_CONST  ----- INT      -------  2
L99PM62DRV_OUTHS_MODE_PWM4 . . . . . . E_CONST  ----- INT      -------  2
L99PM62DRV_OUTHS_MODE_TIMER2 . . . . . E_CONST  ----- INT      -------  2
L99PM62DRV_OUTHS_MODE_PWM3 . . . . . . E_CONST  ----- INT      -------  2
L99PM62DRV_OUTHS_MODE_ON . . . . . . . E_CONST  ----- INT      -------  2
L99PM62drv_OutHSModeType . . . . . . .  TYPEDEF ------- INT   -------     2
RELAYOUTPUT_OFF_OFF. . . . . . . . . . E_CONST  ----- INT      -------  2
RELAYOUTPUT_ON_OFF . . . . . . . . . . E_CONST  ----- INT      -------  2
RELAYOUTPUT_OFF_ON . . . . . . . . . . E_CONST  ----- INT      -------  2
RELAYOUTPUT_ON_ON. . . . . . . . . . . E_CONST  ----- INT      -------  2
RELAYOUTPUT_OFF_X. . . . . . . . . . . E_CONST  ----- INT      -------  2
RELAYOUTPUT_ON_X . . . . . . . . . . . E_CONST  ----- INT      -------  2
RELAYOUTPUT_X_OFF. . . . . . . . . . . E_CONST  ----- INT      -------  2
RELAYOUTPUT_X_ON . . . . . . . . . . . E_CONST  ----- INT      -------  2
L99PM62drv_RelayOutputType . . . . . .  TYPEDEF ------- INT   -------     2
L99PM62DRV_VOLTAGE_REG2_OFF. . . . . . E_CONST  ----- INT      -------  2
L99PM62DRV_VOLTAGE_REG2_ON_ACTIVE. . . E_CONST  ----- INT      -------  2
L99PM62DRV_VOLTAGE_REG2_ON_V1. . . . . E_CONST  ----- INT      -------  2
L99PM62DRV_VOLTAGE_REG2_ON . . . . . . E_CONST  ----- INT      -------  2
L99PM62drv_VoltageReg2ModeType . . . .  TYPEDEF ------- INT   -------     2
L99PM62DRV_TIMER1PERIOD_1. . . . . . . E_CONST  ----- INT      -------  2
L99PM62DRV_TIMER1PERIOD_2. . . . . . . E_CONST  ----- INT      -------  2
L99PM62DRV_TIMER1PERIOD_3. . . . . . . E_CONST  ----- INT      -------  2
L99PM62DRV_TIMER1PERIOD_4. . . . . . . E_CONST  ----- INT      -------  2
L99PM62drv_Timer1PeriodType. . . . . .  TYPEDEF ------- INT   -------     2
L99PM62DRV_TIMER1ONTIME_10 . . . . . . E_CONST  ----- INT      -------  2
L99PM62DRV_TIMER1ONTIME_20 . . . . . . E_CONST  ----- INT      -------  2
L99PM62drv_Timer1ONTimeType. . . . . .  TYPEDEF ------- INT   -------     2
L99PM62DRV_TIMER2PERIOD_10 . . . . . . E_CONST  ----- INT      -------  2
L99PM62DRV_TIMER2PERIOD_20 . . . . . . E_CONST  ----- INT      -------  2
L99PM62DRV_TIMER2PERIOD_50 . . . . . . E_CONST  ----- INT      -------  2
L99PM62DRV_TIMER2PERIOD_200. . . . . . E_CONST  ----- INT      -------  2
L99PM62drv_Timer2PeriodType. . . . . .  TYPEDEF ------- INT   -------     2
L99PM62DRV_TIMER2ONTIME_01 . . . . . . E_CONST  ----- INT      -------  2
L99PM62DRV_TIMER2ONTIME_1. . . . . . . E_CONST  ----- INT      -------  2
L99PM62drv_Timer2ONTimeType. . . . . .  TYPEDEF ------- INT   -------     2
L99PM62DRV_WU_INPUT_MODE_CUR_SINK. . . E_CONST  ----- INT      -------  2
L99PM62DRV_WU_INPUT_MODE_CUR_SOURCE. . E_CONST  ----- INT      -------  2
L99PM62drv_WUInputModeType . . . . . .  TYPEDEF ------- INT   -------     2
L99PM62DRV_IN_FILTER_64. . . . . . . . E_CONST  ----- INT      -------  2
L99PM62DRV_IN_FILTER_80_TIMER2 . . . . E_CONST  ----- INT      -------  2
L99PM62DRV_IN_FILTER_800_TIMER2. . . . E_CONST  ----- INT      -------  2
L99PM62DRV_IN_FILTER_800_TIMER1. . . . E_CONST  ----- INT      -------  2
L99PM62drv_InputFilterModeType . . . .  TYPEDEF ------- INT   -------     2
L99PM62DRV_RESET_THRESHOLD_4600. . . . E_CONST  ----- INT      -------  2
L99PM62DRV_RESET_THRESHOLD_4350. . . . E_CONST  ----- INT      -------  2
L99PM62DRV_RESET_THRESHOLD_4100. . . . E_CONST  ----- INT      -------  2
L99PM62DRV_RESET_THRESHOLD_3800. . . . E_CONST  ----- INT      -------  2
L99PM62drv_ResetThresholdLevelType . .  TYPEDEF ------- INT   -------     2
L99PM62DRV_DISABLE . . . . . . . . . . E_CONST  ----- INT      -------  2
L99PM62DRV_ENABLE. . . . . . . . . . . E_CONST  ----- INT      -------  2
L99PM62drv_EnableType. . . . . . . . .  TYPEDEF ------- INT   -------     2
L99PM62drv_RegType . . . . . . . . . .  TYPEDEF ------- U_CHAR  -------     2
L99PM62DRV_CR1 . . . . . . . . . . . . E_CONST  ----- INT      -------  2
L99PM62DRV_CR2 . . . . . . . . . . . . E_CONST  ----- INT      -------  2
L99PM62DRV_CR3 . . . . . . . . . . . . E_CONST  ----- INT      -------  2
L99PM62DRV_CR4 . . . . . . . . . . . . E_CONST  ----- INT      -------  2
L99PM62DRV_CR5 . . . . . . . . . . . . E_CONST  ----- INT      -------  2
L99PM62DRV_CR6 . . . . . . . . . . . . E_CONST  ----- INT      -------  2
L99PM62DRV_SR1 . . . . . . . . . . . . E_CONST  ----- INT      -------  2
L99PM62DRV_SR2 . . . . . . . . . . . . E_CONST  ----- INT      -------  2
L99PM62DRV_SR3 . . . . . . . . . . . . E_CONST  ----- INT      -------  2
L99PM62DRV_CFR . . . . . . . . . . . . E_CONST  ----- INT      -------  2
L99PM62drv_RegIDType . . . . . . . . .  TYPEDEF ------- INT   -------     2
L99PM62DRV_PWMFREQU_100HZ. . . . . . . E_CONST  ----- INT      -------  2
L99PM62DRV_PWMFREQU_200HZ. . . . . . . E_CONST  ----- INT      -------  2
L99PM62drv_PWMFrequType. . . . . . . .  TYPEDEF ------- INT   -------     2
L99PM62DRV_CYCLIC_WAKEUP_TIMER2. . . . E_CONST  ----- INT      -------  2
L99PM62DRV_CYCLIC_WAKEUP_TIMER1. . . . E_CONST  ----- INT      -------  2
L99PM62drv_CyclicWakeUpTimerType . . .  TYPEDEF ------- INT   -------     2
L99PM62DRV_WDC_TRIG_10 . . . . . . . . E_CONST  ----- INT      -------  2
L99PM62DRV_WDC_TRIG_50 . . . . . . . . E_CONST  ----- INT      -------  2
L99PM62DRV_WDC_TRIG_100. . . . . . . . E_CONST  ----- INT      -------  2
L99PM62DRV_WDC_TRIG_200. . . . . . . . E_CONST  ----- INT      -------  2
L99PM62drv_WDTimingType. . . . . . . .  TYPEDEF ------- INT   -------     2
L99PM62drv_ReportError . . . . . . . .  EXTERN  CODE    PROC    ------- -----
L99PM62drv_Init. . . . . . . . . . . .  EXTERN  CODE    PROC    ------- -----
L99PM62drv_WdgTrigger. . . . . . . . .  EXTERN  CODE    PROC    ------- -----
L99PM62drv_SetStandbyMode. . . . . . .  EXTERN  CODE    PROC    ------- -----
L99PM62drv_SetOut1Mode . . . . . . . .  EXTERN  CODE    PROC    ------- -----
L99PM62drv_SetOut2Mode . . . . . . . .  EXTERN  CODE    PROC    ------- -----
L99PM62drv_SetOut3Mode . . . . . . . .  EXTERN  CODE    PROC    ------- -----
L99PM62drv_SetOut4Mode . . . . . . . .  EXTERN  CODE    PROC    ------- -----
L99PM62drv_SetOutHSMode. . . . . . . .  EXTERN  CODE    PROC    ------- -----
L99PM62drv_SetOutHSAutorecovery. . . .  EXTERN  CODE    PROC    ------- -----
L99PM62drv_SetRelayOutput. . . . . . .  EXTERN  CODE    PROC    ------- -----
L99PM62drv_SetVoltageReg2Mode. . . . .  EXTERN  CODE    PROC    ------- -----
L99PM62drv_SetTimer1 . . . . . . . . .  EXTERN  CODE    PROC    ------- -----
L99PM62drv_SetTimer2 . . . . . . . . .  EXTERN  CODE    PROC    ------- -----
L99PM62drv_SetWUInputMode. . . . . . .  EXTERN  CODE    PROC    ------- -----
L99PM62drv_EnableWakeupSource. . . . .  EXTERN  CODE    PROC    ------- -----
L99PM62drv_SetResetThresholdLevel. . .  EXTERN  CODE    PROC    ------- -----
L99PM62drv_SetInputFilterMode. . . . .  EXTERN  CODE    PROC    ------- -----
L99PM62drv_LinSetup. . . . . . . . . .  EXTERN  CODE    PROC    ------- -----
L99PM62drv_SetVsLockoutMode. . . . . .  EXTERN  CODE    PROC    ------- -----
L99PM62drv_SetRelayShutdownMode. . . .  EXTERN  CODE    PROC    ------- -----
L99PM62drv_SetVReg1CurrentMonitorMode.  EXTERN  CODE    PROC    ------- -----
L99PM62drv_SetPWMFrequ . . . . . . . .  EXTERN  CODE    PROC    ------- -----
L99PM62drv_SetPWMDutyCycle . . . . . .  EXTERN  CODE    PROC    ------- -----
L99PM62drv_SetWDTiming . . . . . . . .  EXTERN  CODE    PROC    ------- -----
L99PM62drv_SetCyclicWakeUp . . . . . .  EXTERN  CODE    PROC    ------- -----
L99PM62drv_EnableBusWakeUp . . . . . .  EXTERN  CODE    PROC    ------- -----
L99PM62drv_SetCanStandbyMode . . . . .  EXTERN  CODE    PROC    ------- -----
L99PM62drv_GetGlobalStatusRegister . .  EXTERN  CODE    PROC    ------- -----
L99PM62drv_ReadStatus. . . . . . . . .  EXTERN  CODE    PROC    ------- -----
L99PM62drv_ReadClearStatus . . . . . .  EXTERN  CODE    PROC    ------- -----
L99PM62drv_ReadControl . . . . . . . .  EXTERN  CODE    PROC    ------- -----
L99PM62drv_GetControl. . . . . . . . .  EXTERN  CODE    PROC    ------- -----
L99PM62drv_WriteControl. . . . . . . .  EXTERN  CODE    PROC    ------- -----
L99PM62drv_ClearStatusRegisters. . . .  EXTERN  CODE    PROC    ------- -----
ST_SPI_Send_16 . . . . . . . . . . . .  EXTERN  CODE    PROC    ------- -----
L99PM62drv_SetCanLoopBackMode. . . . .  EXTERN  CODE    PROC    ------- -----
L99PM62drv_SetCanPatternWakeUp . . . .  EXTERN  CODE    PROC    ------- -----
StartupCompleted . . . . . . . . . . . E_CONST  ----- INT      -------  2
LIN_Task . . . . . . . . . . . . . . .  EXTERN  CODE    PROC    ------- -----
LIN_MasterConfig . . . . . . . . . . .  EXTERN  CODE    PROC    ------- -----
InitScheduleTable. . . . . . . . . . .  EXTERN  CODE    PROC    ------- -----
Appli. . . . . . . . . . . . . . . . .  EXTERN  CODE    PROC    ------- -----
TimingDelay. . . . . . . . . . . . . .  STATIC  DATA    BASE    000000H     4
WdgTrigger . . . . . . . . . . . . . .  STATIC  DATA    BASE    000004H     4
WdgTriggerReload . . . . . . . . . . .  STATIC  DATA    BASE    000008H     4
ReceptionEnable. . . . . . . . . . . . E_CONST  ----- INT      -------  2
TIM4_Config. . . . . . . . . . . . . .  STATIC  CODE    PROC    ------- -----
Delay. . . . . . . . . . . . . . . . .  STATIC  CODE    PROC    ------- -----
TimingDelay_Decrement. . . . . . . . .  EXTERN  CODE    PROC    ------- -----
L99PM62drv_WdgAutoTrigger. . . . . . .  STATIC  CODE    PROC    ------- -----
CLK_Config . . . . . . . . . . . . . .  STATIC  CODE    PROC    ------- -----
GPIO_Config. . . . . . . . . . . . . .  STATIC  CODE    PROC    ------- -----
main . . . . . . . . . . . . . . . . .  PUBLIC  CODE    PROC    ------- -----
  status?295 . . . . . . . . . . . . . E_CONST  ----- INT      -------  2
CLK_Config . . . . . . . . . . . . . .  PUBLIC  CODE    PROC    ------- -----
  status?295 . . . . . . . . . . . . . E_CONST  ----- INT      -------  2
GPIO_Config. . . . . . . . . . . . . .  PUBLIC  CODE    PROC    ------- -----
TIM4_Config. . . . . . . . . . . . . .  STATIC  CODE    PROC    ------- -----
L99PM62drv_WdgAutoTrigger. . . . . . .  PUBLIC  CODE    PROC    ------- -----
 WdgAutoTriggerValue?300 . . . . . . .  PARAM   AUTO    BASE    000002H     4
WdgAutoDecrement . . . . . . . . . . .  PUBLIC  CODE    PROC    ------- -----
TimingDelay_Decrement. . . . . . . . .  PUBLIC  CODE    PROC    ------- -----
Delay. . . . . . . . . . . . . . . . .  PUBLIC  CODE    PROC    ------- -----
 nTime?305 . . . . . . . . . . . . . .  PARAM   AUTO    BASE    000002H     4
assert_failed. . . . . . . . . . . . .  PUBLIC  CODE    PROC    ------- -----
 file?306. . . . . . . . . . . . . . .  PARAM   AUTO    PTR     000000H     2
 line?307. . . . . . . . . . . . . . .  PARAM   AUTO    BASE    000002H     4
StartupCompleted . . . . . . . . . . . E_CONST  ----- INT      -------  2
SPI_DeInit . . . . . . . . . . . . . .  EXTERN  CODE    PROC    ------- -----
SPI_Init . . . . . . . . . . . . . . .  EXTERN  CODE    PROC    ------- -----
SPI_Cmd. . . . . . . . . . . . . . . .  EXTERN  CODE    PROC    ------- -----
TIM4_Cmd . . . . . . . . . . . . . . .  EXTERN  CODE    PROC    ------- -----
LIN_MasterConfig . . . . . . . . . . .  EXTERN  CODE    PROC    ------- -----
InitScheduleTable. . . . . . . . . . .  EXTERN  CODE    PROC    ------- -----
L99PM62drv_Init. . . . . . . . . . . .  EXTERN  CODE    PROC    ------- -----
Appli. . . . . . . . . . . . . . . . .  EXTERN  CODE    PROC    ------- -----
LIN_Task . . . . . . . . . . . . . . .  EXTERN  CODE    PROC    ------- -----
CLK_HSIPrescalerConfig . . . . . . . .  EXTERN  CODE    PROC    ------- -----
CLK_ClockSwitchConfig. . . . . . . . .  EXTERN  CODE    PROC    ------- -----
GPIO_Init. . . . . . . . . . . . . . .  EXTERN  CODE    PROC    ------- -----
EXTI_SetExtIntSensitivity. . . . . . .  EXTERN  CODE    PROC    ------- -----
TIM4_TimeBaseInit. . . . . . . . . . .  EXTERN  CODE    PROC    ------- -----
TIM4_ClearFlag . . . . . . . . . . . .  EXTERN  CODE    PROC    ------- -----
TIM4_ITConfig. . . . . . . . . . . . .  EXTERN  CODE    PROC    ------- -----
L99PM62drv_WdgTrigger. . . . . . . . .  EXTERN  CODE    PROC    ------- -----
L99PM62drv_ClearStatusRegisters. . . .  EXTERN  CODE    PROC    ------- -----
RCSTM8 COMPILER V2.44.12.199


MODULE INFORMATION:   STATIC OVERLAYABLE
   CODE SIZE        =    412    ----
   CONSTANT SIZE    =   ----    ----
   DATA SIZE        =     14    ----
   PAGE0 SIZE       =   ----    ----
   BIT SIZE         =   ----    ----
END OF MODULE INFORMATION.

RCSTM8 COMPILATION COMPLETE.  2 WARNINGS,  0 ERROR
