RCSTM8 COMPILER V2.44.12.199,  STM8S_CAN          11/13/12  11:08:03

QCW(0x009A3FE0)

RCSTM8 COMPILER V2.44.12.199, COMPILATION OF MODULE STM8S_CAN 
OBJECT MODULE PLACED IN Debug\stm8s_can.o
COMPILER INVOKED BY: OBJECT(Debug\stm8s_can.o) PIN(C:\Raisonance\Ride\inc\STM8) PIN(C:\Raisonance\Ride\inc\ST7) PIN(C:\Raisonance\Ride\inc) WRV(0) STM8(SMALL) DEBUG DGC(data) AUTO OT(7,SIZE) PR(Debug\stm8s_can.lst) CD CO SB INITSTATICVAR LAOB PIN(..\..\..\..\libraries\stm8s_stdperiph_driver\inc) PIN(..\..\inc) DEFINE(STM8AF52Ax) 

stmt level    source
   1          /**
   2            ******************************************************************************
   3            * @file    stm8s_can.c
   4            * @author  MCD Application Team
   5            * @version V2.1.0
   6            * @date    18-November-2011
   7            * @brief   This file contains all the functions for the CAN peripheral.
   8            ******************************************************************************
   9            * @attention
  10            *
  11            * THE PRESENT FIRMWARE WHICH IS FOR GUIDANCE ONLY AIMS AT PROVIDING CUSTOMERS
  12            * WITH CODING INFORMATION REGARDING THEIR PRODUCTS IN ORDER FOR THEM TO SAVE
  13            * TIME. AS A RESULT, STMICROELECTRONICS SHALL NOT BE HELD LIABLE FOR ANY
  14            * DIRECT, INDIRECT OR CONSEQUENTIAL DAMAGES WITH RESPECT TO ANY CLAIMS ARISING
  15            * FROM THE CONTENT OF SUCH FIRMWARE AND/OR THE USE MADE BY CUSTOMERS OF THE
  16            * CODING INFORMATION CONTAINED HEREIN IN CONNECTION WITH THEIR PRODUCTS.
  17            *
  18            * <h2><center>&copy; COPYRIGHT 2011 STMicroelectronics</center></h2>
  19            ******************************************************************************
  20            */
  21          
  22          /* Includes ------------------------------------------------------------------*/
  23          #include "stm8s_can.h"
  24          
  25          /** @addtogroup STM8S_StdPeriph_Driver
  26            * @{
  27            */
  28          /* Private typedef -----------------------------------------------------------*/
  29          /* Private define ------------------------------------------------------------*/
  30          #define CAN_IDLIST_IDMASK_MASK ((uint8_t) 0x55)
  31          #define CAN_IDMASK_IDLIST_MASK ((uint8_t) 0xAA)
  32          #define CAN_MODE_MASK ((uint8_t) 0x03)
  33          #define CAN_ACKNOWLEDGE_TIMEOUT ((uint16_t)0xFFFF)
  34          /* Private macro -------------------------------------------------------------*/
  35          /* Private variables ---------------------------------------------------------*/
  36          __IO uint32_t _Id = 0;
  37          __IO uint8_t _IDE = 0;
  38          __IO uint8_t _RTR = 0;
  39          __IO uint8_t _DLC = 0;
  40          __IO uint8_t _Data[8] = {0};
  41          __IO uint8_t _FMI = 0;
  42          /* Private function prototypes -----------------------------------------------*/
  43          static ITStatus CheckITStatus(uint8_t CAN_Reg, uint8_t It_Bit);
  44          
  45          /* Private functions ---------------------------------------------------------*/
  46          /**
  47            * @addtogroup CAN_Public_Functions
  48            * @{
  49            */
  50          
  51          /**
  52            * @brief  Deinitializes the CAN peripheral registers to their default reset values.
  53            * @param  None
  54            * @retval None
  55            */
  56          void CAN_DeInit(void)
  57          {
  58   1          /* Request initialisation */
  59   1          CAN->MCR = CAN_MCR_INRQ;
  60   1          CAN->PSR = CAN_Page_Config;
  61   1          CAN_OperatingModeRequest(CAN_OperatingMode_Initialization);
  62   1          CAN->Page.Config.ESR = CAN_ESR_RESET_VALUE;
  63   1          CAN->Page.Config.EIER = CAN_EIER_RESET_VALUE;
  64   1          CAN->Page.Config.BTR1 = CAN_BTR1_RESET_VALUE;
  65   1          CAN->Page.Config.BTR2 = CAN_BTR2_RESET_VALUE;
  66   1          CAN->Page.Config.FMR1 = CAN_FMR1_RESET_VALUE;
  67   1          CAN->Page.Config.FMR2 = CAN_FMR2_RESET_VALUE;
  68   1          CAN->Page.Config.FCR1 = CAN_FCR_RESET_VALUE;
  69   1          CAN->Page.Config.FCR2 = CAN_FCR_RESET_VALUE;
  70   1          CAN->Page.Config.FCR3 = CAN_FCR_RESET_VALUE;
  71   1          CAN_OperatingModeRequest(CAN_OperatingMode_Normal);
  72   1          CAN->PSR = CAN_Page_RxFifo;
  73   1          CAN->Page.RxFIFO.MDLCR = CAN_MDLC_RESET_VALUE;
  74   1          CAN->PSR = CAN_Page_TxMailBox0;
  75   1          CAN->Page.TxMailbox.MDLCR = CAN_MDLC_RESET_VALUE;
  76   1          CAN->PSR = CAN_Page_TxMailBox1;
  77   1          CAN->Page.TxMailbox.MDLCR = CAN_MDLC_RESET_VALUE;
  78   1          CAN->PSR = CAN_Page_TxMailBox2;
  79   1          CAN->Page.TxMailbox.MDLCR = CAN_MDLC_RESET_VALUE;
  80   1      
  81   1          CAN->MCR = CAN_MCR_RESET_VALUE;
  82   1          CAN->MSR = (uint8_t)(~CAN_MSR_RESET_VALUE);/* rc_w1 */
  83   1          CAN->TSR = (uint8_t)(~CAN_TSR_RESET_VALUE);/* rc_w1 */
  84   1          CAN->RFR = (uint8_t)(~CAN_RFR_RESET_VALUE);/* rc_w1 */
  85   1          CAN->IER = CAN_IER_RESET_VALUE;
  86   1          CAN->DGR = CAN_DGR_RESET_VALUE;
  87   1          CAN->PSR = CAN_PSR_RESET_VALUE;
  88   1      }
  89          
  90          /**
  91            * @brief  Initializes the CAN peripheral according to the specified parameters.
  92            * @param   CAN_MasterCtrl : Master control option, can be one or a combination of @ref CAN_MasterCtrl_TypeDef.
  93            * @param   CAN_Mode : CAN mode , can be one of @ref CAN_Mode_TypeDef.
  94            * @param   CAN_SynJumpWidth : CAN Synchronisation Jump Width , can be one of @ref CAN_SynJumpWidth_TypeDef.
  95            * @param   CAN_BitSeg1 : CAN bit segment 1 , can be one of @ref CAN_BitSeg1_TypeDef.
  96            * @param   CAN_BitSeg2 : CAN bit segment 2 , can be one of @ref CAN_BitSeg2_TypeDef.
  97            * @param   CAN_Prescaler : CAN Baud Rate Prescaler , can be a value from 0x01 to 0xFF.
  98            * @retval Indicates if initialization is succeed. it can be one of @ref CAN_InitStatus_TypeDef enumeration.
  99            */
 100          CAN_InitStatus_TypeDef CAN_Init(CAN_MasterCtrl_TypeDef CAN_MasterCtrl,
 101                                          CAN_Mode_TypeDef CAN_Mode,
 102                                          CAN_SynJumpWidth_TypeDef CAN_SynJumpWidth,
 103                                          CAN_BitSeg1_TypeDef CAN_BitSeg1,
 104                                          CAN_BitSeg2_TypeDef CAN_BitSeg2,
 105                                          uint8_t CAN_Prescaler)
 106          {
 107   1          CAN_InitStatus_TypeDef InitStatus =  CAN_InitStatus_Failed;
 108   1          uint16_t timeout = CAN_ACKNOWLEDGE_TIMEOUT;
 109   1          CAN_Page_TypeDef can_page = CAN_GetSelectedPage();
 110   1      
 111   1      
 112   1          /* Check the parameters */
 113   1          assert_param(IS_CAN_MASTERCTRL_OK(CAN_MasterCtrl));
 114   1          assert_param(IS_CAN_MODE_OK(CAN_Mode));
 115   1          assert_param(IS_CAN_SYNJUMPWIDTH_OK(CAN_SynJumpWidth));
 116   1          assert_param(IS_CAN_BITSEG1_OK(CAN_BitSeg1));
 117   1          assert_param(IS_CAN_BITSEG2_OK(CAN_BitSeg2));
 118   1          assert_param(IS_CAN_PRESCALER_OK(CAN_Prescaler));
 119   1      
 120   1          /* Request initialisation */
 121   1          CAN->MCR = CAN_MCR_INRQ;
 122   1          /* Wait the acknowledge */
 123   1          while (((uint8_t)(CAN->MSR & CAN_MSR_INAK) != 0x01) && ((uint16_t)timeout != 0))
 124   1          {
 125   2              timeout--;
 126   2          }
 127   1      
 128   1          /* Check acknowledged */
 129   1          if ((CAN->MSR & CAN_MSR_INAK) != CAN_MSR_INAK)
 130   1          {
 131   2      
 132   2              InitStatus =  CAN_InitStatus_Failed;
 133   2      
 134   2          }
 135   1          else
 136   1          {
 137   2              /* Set the time triggered communication mode  &  Set the automatic bus-off management  &   Set the automatic wake-up mode
 138   2              &     Set the no automatic retransmission & Set the receive FIFO locked mode & Set the transmit FIFO priority */
 139   2              CAN->MCR |= (uint8_t)CAN_MasterCtrl;
 140   2      
 141   2              /* Set the bit timing register */
 142   2              CAN->DGR |= (uint8_t)CAN_Mode ;
 143   2              CAN->PSR = CAN_Page_Config;
 144   2              CAN->Page.Config.BTR1 = (uint8_t)((uint8_t)(CAN_Prescaler - (uint8_t)1) | CAN_SynJumpWidth);
 145   2              CAN->Page.Config.BTR2 = (uint8_t)(CAN_BitSeg1 | (uint8_t)CAN_BitSeg2);
 146   2      
 147   2              /* Request leave initialisation */
 148   2              CAN->MCR &= (uint8_t)(~CAN_MCR_INRQ);
 149   2              /* Wait the acknowledge */
 150   2              timeout = 0xFFFF;
 151   2              while ((((uint8_t)(CAN->MSR & CAN_MSR_INAK) == 0x01))&&(timeout != 0))
 152   2              {
 153   3                  timeout--;
 154   3              }
 155   2              /* Check acknowledged */
 156   2              if ((CAN->MSR & CAN_MSR_INAK) == CAN_MSR_INAK)
 157   2              {
 158   3                  InitStatus = CAN_InitStatus_Failed;
 159   3              }
 160   2              else
 161   2              {
 162   3                  InitStatus = CAN_InitStatus_Success;
 163   3              }
 164   2          }
 165   1          /*Restore Last Page*/
 166   1          CAN_SelectPage(can_page);
 167   1      
 168   1          /* Return the status of initialization */
 169   1          return (CAN_InitStatus_TypeDef)InitStatus;
 170   1      }
 171          
 172          /**
 173            * @brief  Initializes the CAN peripheral Filter according to the specified parameters.
 174            * @param   CAN_FilterNumber : CAN Filter number , can be one of @ref CAN_FilterNumber_TypeDef
 175            * @param   CAN_FilterActivation : CAN Filter Activation state , can be one of @ref FunctionalState
 176            * @param   CAN_FilterMode : CAN Filter Mode , can be one of @ref CAN_FilterMode_TypeDef
 177            * @param   CAN_FilterScale : CAN Filter Scale , can be one of @ref CAN_FilterScale_TypeDef
 178            * @param   CAN_FilterID1 : CAN Filter ID 1 , can be a value from 0x00 to 0xFF
 179            * @param   CAN_FilterID2 : CAN Filter ID 2 , can be a value from 0x00 to 0xFF
 180            * @param   CAN_FilterID3 : CAN Filter ID 3 , can be a value from 0x00 to 0xFF
 181            * @param   CAN_FilterID4 : CAN Filter ID 4 , can be a value from 0x00 to 0xFF
 182            * @param   CAN_FilterIDMask1 : CAN Filter ID 1/ Mask 1  , can be a value from 0x00 to 0xFF depending of CAN_FilterMode parameter
 183            * @param   CAN_FilterIDMask2 : CAN Filter ID 2/ Mask 2 , can be a value from 0x00 to 0xFF depending of CAN_FilterMode parameter
 184            * @param   CAN_FilterIDMask3 : CAN Filter ID 3/ Mask 3 , can be a value from 0x00 to 0xFF depending of CAN_FilterMode parameter
 185            * @param   CAN_FilterIDMask4 : CAN Filter ID 4/ Mask 4 , can be a value from 0x00 to 0xFF depending of CAN_FilterMode parameter
 186            * @retval None
 187            */
 188          void CAN_FilterInit(CAN_FilterNumber_TypeDef CAN_FilterNumber,
 189                              FunctionalState CAN_FilterActivation,
 190                              CAN_FilterMode_TypeDef CAN_FilterMode,
 191                              CAN_FilterScale_TypeDef CAN_FilterScale,
 192                              uint8_t CAN_FilterID1,
 193                              uint8_t CAN_FilterID2,
 194                              uint8_t CAN_FilterID3,
 195                              uint8_t CAN_FilterID4,
 196                              uint8_t CAN_FilterIDMask1,
 197                              uint8_t CAN_FilterIDMask2,
 198                              uint8_t CAN_FilterIDMask3,
 199                              uint8_t CAN_FilterIDMask4)
 200          {
 201   1          uint8_t fact = 0;
 202   1          uint8_t fsc  = 0;
 203   1          uint8_t fmhl = 0;
 204   1      
 205   1          CAN_Page_TypeDef can_page_filter = CAN_Page_Filter01;
 206   1          CAN_Page_TypeDef can_page = CAN_GetSelectedPage();
 207   1      
 208   1          /* Check the parameters */
 209   1          assert_param(IS_CAN_FILTER_NUMBER_OK(CAN_FilterNumber));
 210   1          assert_param(IS_FUNCTIONALSTATE_OK(CAN_FilterActivation));
 211   1          assert_param(IS_CAN_FILTER_MODE_OK(CAN_FilterMode));
 212   1          assert_param(IS_CAN_FILTER_SCALE_OK(CAN_FilterScale));
 213   1      
 214   1      
 215   1          if (CAN_FilterNumber == CAN_FilterNumber_0)
 216   1          {
 217   2              fact = 0x01;
 218   2              fsc  = 0x00;
 219   2              fmhl = 0x03;
 220   2      
 221   2              can_page_filter = CAN_Page_Filter01;
 222   2          }
 223   1          else if (CAN_FilterNumber == CAN_FilterNumber_1)
 224   1          {
 225   2              fact = 0x10;
 226   2              fsc  = 0x04;
 227   2              fmhl = 0x0C;
 228   2      
 229   2              can_page_filter = CAN_Page_Filter01;
 230   2          }
 231   1          else if (CAN_FilterNumber == CAN_FilterNumber_2)
 232   1          {
 233   2              fact = 0x01;
 234   2              fsc  = 0x00;
 235   2              fmhl = 0x30;
 236   2      
 237   2              can_page_filter = CAN_Page_Filter23;
 238   2          }
 239   1          else if (CAN_FilterNumber == CAN_FilterNumber_3)
 240   1          {
 241   2              fact = 0x10;
 242   2              fsc  = 0x04;
 243   2              fmhl = 0xC0;
 244   2      
 245   2              can_page_filter = CAN_Page_Filter23;
 246   2          }
 247   1          else if (CAN_FilterNumber == CAN_FilterNumber_4)
 248   1          {
 249   2              fact = 0x01;
 250   2              fsc  = 0x00;
 251   2              fmhl = 0x03;
 252   2      
 253   2              can_page_filter = CAN_Page_Filter45;
 254   2          }
 255   1          else /*if (CAN_FilterNumber == CAN_FilterNumber_5)*/
 256   1          {
 257   2              fact = 0x10;
 258   2              fsc  = 0x04;
 259   2              fmhl = 0x0C;
 260   2      
 261   2              can_page_filter = CAN_Page_Filter45;
 262   2          }
 263   1      
 264   1      
 265   1          CAN_OperatingModeRequest(CAN_OperatingMode_Initialization);
 266   1      
 267   1          CAN->PSR = CAN_Page_Config;
 268   1          /*---------------------------------------------------------*/
 269   1          /*Configuration of Filter Scale                            */
 270   1          /*---------------------------------------------------------*/
 271   1      
 272   1          if (can_page_filter == CAN_Page_Filter01) /* FCR1 */
 273   1          {
 274   2              /* Filter Deactivation  & Reset the Filter Scale */
 275   2              CAN->Page.Config.FCR1 &= (uint8_t)(~(uint8_t)(fact | (uint8_t)((uint8_t)(CAN_FCR1_FSC00|CAN_FCR1_FSC01) << fsc )));
 276   2              /* Set the new Filter Scale */
 277   2              CAN->Page.Config.FCR1 |= (uint8_t)(CAN_FilterScale << fsc);
 278   2          }
 279   1          else if (can_page_filter == CAN_Page_Filter23) /* FCR2*/
 280   1          {
 281   2              /* Filter Deactivation  & Reset the Filter Scale */
 282   2              CAN->Page.Config.FCR2 &= (uint8_t)~(uint8_t)( fact | (uint8_t)((uint8_t)(CAN_FCR1_FSC00|CAN_FCR1_FSC01) << fsc ));
 283   2      
 284   2              /* Set the new Filter Scale */
 285   2              CAN->Page.Config.FCR2 |= (uint8_t)(CAN_FilterScale << fsc);
 286   2      
 287   2          }
 288   1          else /*if(can_page_filter == CAN_Page_Filter45)*/ /* FCR3*/
 289   1          {
 290   2              /* Filter Deactivation  & Reset the Filter Scale */
 291   2              CAN->Page.Config.FCR3 &= (uint8_t)~(uint8_t)( fact | (uint8_t)((uint8_t)(CAN_FCR1_FSC00|CAN_FCR1_FSC01) << fsc ));
 292   2      
 293   2              /* Set the new Filter Scale */
 294   2              CAN->Page.Config.FCR3 |= (uint8_t)(CAN_FilterScale << fsc);
 295   2          }
 296   1      
 297   1          /*---------------------------------------------------------*/
 298   1          /*Configuration of Filter Mode                             */
 299   1          /*---------------------------------------------------------*/
 300   1          if (can_page_filter != CAN_Page_Filter45) /* FMR1*/
 301   1          {
 302   2              /* Filter Mode */
 303   2              if (CAN_FilterMode == CAN_FilterMode_IdMask)
 304   2              {
 305   3                  /*Id/Mask mode for the filter*/
 306   3                  CAN->Page.Config.FMR1 &= (uint8_t)~(fmhl);
 307   3              }
 308   2              else if ( CAN_FilterMode == CAN_FilterMode_IdList)
 309   2              {
 310   3                  /*Identifier list mode for the filter*/
 311   3                  CAN->Page.Config.FMR1 |= (uint8_t)(fmhl);
 312   3              }
 313   2              else if ( CAN_FilterMode == CAN_FilterMode_IdList_IdMask)
 314   2              {
 315   3                  /*Identifier list mode is first  for the filter*/
 316   3                  CAN->Page.Config.FMR1 |= (uint8_t)(fmhl & CAN_IDLIST_IDMASK_MASK);
 317   3              }
 318   2              else /* ( CAN_FilterMode == CAN_FilterMode_IdMask_IdList)*/
 319   2              {
 320   3                  /*Id Mask mode is first  for the filter*/
 321   3                  CAN->Page.Config.FMR1 |= (uint8_t)(fmhl & CAN_IDMASK_IDLIST_MASK);
 322   3              }
 323   2      
 324   2      
 325   2          }
 326   1          else /* FMR2 */
 327   1          {
 328   2      
 329   2              /* Filter Mode */
 330   2              if (CAN_FilterMode == CAN_FilterMode_IdMask)
 331   2              {
 332   3                  /*Id/Mask mode for the filter*/
 333   3                  CAN->Page.Config.FMR2 &= (uint8_t)~(fmhl);
 334   3              }
 335   2              else if ( CAN_FilterMode == CAN_FilterMode_IdList)
 336   2              {
 337   3                  /*Identifier list mode for the filter*/
 338   3                  CAN->Page.Config.FMR2 |= (uint8_t)(fmhl);
 339   3              }
 340   2              else if ( CAN_FilterMode == CAN_FilterMode_IdList_IdMask)
 341   2              {
 342   3                  /*Identifier list mode is first  for the filter*/
 343   3                  CAN->Page.Config.FMR2 |= (uint8_t)(fmhl & CAN_IDLIST_IDMASK_MASK);
 344   3              }
 345   2              else /* ( CAN_FilterMode == CAN_FilterMode_IdMask_IdList)*/
 346   2              {
 347   3                  /*Id Mask mode is first  for the filter*/
 348   3                  CAN->Page.Config.FMR2 |= (uint8_t)(fmhl & CAN_IDMASK_IDLIST_MASK);
 349   3              }
 350   2          }
 351   1          /*---------------------------------------------------------*/
 352   1          /*Configuration of Filter IDs                              */
 353   1          /*---------------------------------------------------------*/
 354   1          CAN->PSR = (uint8_t)can_page_filter;
 355   1          if (fsc != 0)
 356   1          {
 357   2              /* Filter Scale */
 358   2              if (CAN_FilterScale == CAN_FilterScale_8Bit)
 359   2              {
 360   3                  CAN->Page.Filter.FR09 = CAN_FilterID1;
 361   3                  CAN->Page.Filter.FR10 = CAN_FilterIDMask1;
 362   3                  CAN->Page.Filter.FR11 = CAN_FilterID2;
 363   3                  CAN->Page.Filter.FR12 = CAN_FilterIDMask2;
 364   3                  CAN->Page.Filter.FR13 = CAN_FilterID3;
 365   3                  CAN->Page.Filter.FR14 = CAN_FilterIDMask3;
 366   3                  CAN->Page.Filter.FR15 = CAN_FilterID4;
 367   3                  CAN->Page.Filter.FR16 = CAN_FilterIDMask4;
 368   3              }
 369   2              else if (CAN_FilterScale == CAN_FilterScale_16_8Bit)
 370   2              {
 371   3                  CAN->Page.Filter.FR09 = CAN_FilterID1;
 372   3                  CAN->Page.Filter.FR10 = CAN_FilterID2;
 373   3                  CAN->Page.Filter.FR11 = CAN_FilterIDMask1;
 374   3                  CAN->Page.Filter.FR12 = CAN_FilterIDMask2;
 375   3                  CAN->Page.Filter.FR13 = CAN_FilterID3;
 376   3                  CAN->Page.Filter.FR14 = CAN_FilterIDMask3;
 377   3                  CAN->Page.Filter.FR15 = CAN_FilterID4;
 378   3                  CAN->Page.Filter.FR16 = CAN_FilterIDMask4;
 379   3              }
 380   2              else if (CAN_FilterScale == CAN_FilterScale_16Bit)
 381   2              {
 382   3                  CAN->Page.Filter.FR09 = CAN_FilterID1;
 383   3                  CAN->Page.Filter.FR10 = CAN_FilterID2;
 384   3                  CAN->Page.Filter.FR11 = CAN_FilterIDMask1;
 385   3                  CAN->Page.Filter.FR12 = CAN_FilterIDMask2;
 386   3                  CAN->Page.Filter.FR13 = CAN_FilterID3;
 387   3                  CAN->Page.Filter.FR14 = CAN_FilterID4;
 388   3                  CAN->Page.Filter.FR15 = CAN_FilterIDMask3;
 389   3                  CAN->Page.Filter.FR16 = CAN_FilterIDMask4;
 390   3              }
 391   2              else if (CAN_FilterScale == CAN_FilterScale_32Bit)
 392   2              {
 393   3                  CAN->Page.Filter.FR09 = CAN_FilterID1;
 394   3                  CAN->Page.Filter.FR10 = CAN_FilterID2;
 395   3                  CAN->Page.Filter.FR11 = CAN_FilterID3;
 396   3                  CAN->Page.Filter.FR12 = CAN_FilterID4;
 397   3                  CAN->Page.Filter.FR13 = CAN_FilterIDMask1;
 398   3                  CAN->Page.Filter.FR14 = CAN_FilterIDMask2;
 399   3                  CAN->Page.Filter.FR15 = CAN_FilterIDMask3;
 400   3                  CAN->Page.Filter.FR16 = CAN_FilterIDMask4;
 401   3              }
 402   2          }
 403   1          else
 404   1          {
 405   2              /* Filter Scale */
 406   2              if (CAN_FilterScale == CAN_FilterScale_8Bit)
 407   2              {
 408   3                  CAN->Page.Filter.FR01 = CAN_FilterID1;
 409   3                  CAN->Page.Filter.FR02 = CAN_FilterIDMask1;
 410   3                  CAN->Page.Filter.FR03 = CAN_FilterID2;
 411   3                  CAN->Page.Filter.FR04 = CAN_FilterIDMask2;
 412   3                  CAN->Page.Filter.FR05 = CAN_FilterID3;
 413   3                  CAN->Page.Filter.FR06 = CAN_FilterIDMask3;
 414   3                  CAN->Page.Filter.FR07 = CAN_FilterID4;
 415   3                  CAN->Page.Filter.FR08 = CAN_FilterIDMask4;
 416   3              }
 417   2              else if (CAN_FilterScale == CAN_FilterScale_16_8Bit)
 418   2              {
 419   3                  CAN->Page.Filter.FR01 = CAN_FilterID1;
 420   3                  CAN->Page.Filter.FR02 = CAN_FilterID2;
 421   3                  CAN->Page.Filter.FR03 = CAN_FilterIDMask1;
 422   3                  CAN->Page.Filter.FR04 = CAN_FilterIDMask2;
 423   3                  CAN->Page.Filter.FR05 = CAN_FilterID3;
 424   3                  CAN->Page.Filter.FR06 = CAN_FilterIDMask3;
 425   3                  CAN->Page.Filter.FR07 = CAN_FilterID4;
 426   3                  CAN->Page.Filter.FR08 = CAN_FilterIDMask4;
 427   3              }
 428   2              else if (CAN_FilterScale == CAN_FilterScale_16Bit)
 429   2              {
 430   3                  CAN->Page.Filter.FR01 = CAN_FilterID1;
 431   3                  CAN->Page.Filter.FR02 = CAN_FilterID2;
 432   3                  CAN->Page.Filter.FR03 = CAN_FilterIDMask1;
 433   3                  CAN->Page.Filter.FR04 = CAN_FilterIDMask2;
 434   3                  CAN->Page.Filter.FR05 = CAN_FilterID3;
 435   3                  CAN->Page.Filter.FR06 = CAN_FilterID4;
 436   3                  CAN->Page.Filter.FR07 = CAN_FilterIDMask3;
 437   3                  CAN->Page.Filter.FR08 = CAN_FilterIDMask4;
 438   3              }
 439   2              else if (CAN_FilterScale == CAN_FilterScale_32Bit)
 440   2              {
 441   3                  CAN->Page.Filter.FR01 = CAN_FilterID1;
 442   3                  CAN->Page.Filter.FR02 = CAN_FilterID2;
 443   3                  CAN->Page.Filter.FR03 = CAN_FilterID3;
 444   3                  CAN->Page.Filter.FR04 = CAN_FilterID4;
 445   3                  CAN->Page.Filter.FR05 = CAN_FilterIDMask1;
 446   3                  CAN->Page.Filter.FR06 = CAN_FilterIDMask2;
 447   3                  CAN->Page.Filter.FR07 = CAN_FilterIDMask3;
 448   3                  CAN->Page.Filter.FR08 = CAN_FilterIDMask4;
 449   3              }
 450   2          }
 451   1      
 452   1      
 453   1          /*---------------------------------------------------------*/
 454   1          /*Configuration of Filter Activation                       */
 455   1          /*---------------------------------------------------------*/
 456   1          /* Filter activation */
 457   1          CAN->PSR = CAN_Page_Config;
 458   1          if (CAN_FilterActivation != DISABLE)
 459   1          {
 460   2              if ((CAN_FilterNumber & 0x06) == 0x00) /* FCR1*/
 461   2              {   CAN->Page.Config.FCR1 |= (uint8_t)fact;
 462   3              }
 463   2              else if ((CAN_FilterNumber & 0x06) == 0x02) /*FCR2*/
 464   2              { CAN->Page.Config.FCR2 |= (uint8_t)fact;
 465   3              }
 466   2              else /*if((CAN_FilterNumber & 0x06) == 0x04)*/ /*FCR3*/
 467   2              { CAN->Page.Config.FCR3 |= (uint8_t)fact;
 468   3              }
 469   2          }
 470   1          CAN_OperatingModeRequest(CAN_OperatingMode_Normal);
 471   1          /*Restore Last Page*/
 472   1          CAN_SelectPage(can_page);
 473   1      }
 474          
 475          /**
 476            * @brief   Enables or disables the specified CAN interrupts.
 477            * @param    CAN_IT: specifies the CAN interrupt sources to be enabled or disabled.
 478            * @param   NewState : CAN_IT new state , can be one of @ref FunctionalState
 479            * @retval None
 480            */
 481          void CAN_ITConfig(CAN_IT_TypeDef CAN_IT, FunctionalState NewState)
 482          {
 483   1          uint8_t tmperrorinterrupt = 0;
 484   1          CAN_Page_TypeDef can_page = CAN_GetSelectedPage();
 485   1      
 486   1      
 487   1          /* Check the parameters */
 488   1          assert_param(IS_CAN_IT_CONFIG_OK(CAN_IT));
 489   1          assert_param(IS_FUNCTIONALSTATE_OK(NewState));
 490   1      
 491   1          tmperrorinterrupt = (uint8_t)(((uint16_t)CAN_IT) >>7);
 492   1          tmperrorinterrupt = (uint8_t)((uint8_t)((uint16_t)tmperrorinterrupt & 0xF0) | 
 493   1                                        (uint8_t)((uint8_t)((uint16_t)tmperrorinterrupt & 0x0F) >>1));
 494   1      
 495   1          CAN->PSR = CAN_Page_Config;
 496   1          if (NewState != DISABLE)
 497   1          {
 498   2              /* Enable the selected CAN interrupt */
 499   2              CAN->IER |= (uint8_t)(CAN_IT);
 500   2              CAN->Page.Config.EIER |= (uint8_t)(tmperrorinterrupt);
 501   2          }
 502   1          else
 503   1          {
 504   2              /* Disable the selected CAN interrupt */
 505   2              CAN->IER &= (uint8_t)~(uint8_t)((uint16_t)CAN_IT);
 506   2              CAN->Page.Config.EIER &= (uint8_t)~(tmperrorinterrupt);
 507   2          }
 508   1          /*Restore Last Page*/
 509   1          CAN_SelectPage(can_page);
 510   1      }
 511          
 512          /**
 513            * @brief   Enables or Disables the ST7 CAN Compatibility.
 514            * if the ST7 compatibility is Enabled, CAN provides only 2 mailboxes.
 515            * if the ST7 compatibility is Disabled, CAN provides 3 mailboxes.
 516            * @param   CAN_ST7Compatibility : CAN ST7 Compatibility , this parameter can be one of @ref CAN_ST7Compatibility_TypeDef enumeration.
 517            * @retval None
 518            */
 519          void CAN_ST7CompatibilityCmd(CAN_ST7Compatibility_TypeDef CAN_ST7Compatibility)
 520          {
 521   1          /* Check the parameters */
 522   1          assert_param(IS_CAN_ST7_COMPATIBILITY_OK(CAN_ST7Compatibility));
 523   1          /*Reset the old configuration of TXM2E */
 524   1          CAN->DGR &= (uint8_t)(~CAN_DGR_TXM2E);
 525   1      
 526   1          /*Set the old configuration of TXM2E */
 527   1          CAN->DGR |= (uint8_t)CAN_ST7Compatibility;
 528   1      }
 529          
 530          /**
 531            * @brief  Enables or disables the CAN Time TriggerOperation communication mode.
 532            * @param   NewState : Mode new state , can be one of @ref FunctionalState
 533            * @retval None
 534            */
 535          void CAN_TTComModeCmd(FunctionalState NewState)
 536          {
 537   1          CAN_Page_TypeDef can_page = CAN_GetSelectedPage();
 538   1          /* Check the parameters */
 539   1          assert_param(IS_FUNCTIONALSTATE_OK(NewState));
 540   1          if (NewState != DISABLE)
 541   1          {
 542   2              /*Enable the TTCM mode */
 543   2              CAN->MCR |= CAN_MCR_TTCM;
 544   2              /*Set TGT bits setting in Tx and FIFO pages*/
 545   2              CAN->PSR = CAN_Page_TxMailBox0;
 546   2              CAN->Page.TxMailbox.MDLCR |= CAN_MDLCR_TGT;
 547   2              CAN->PSR = CAN_Page_TxMailBox1;
 548   2              CAN->Page.TxMailbox.MDLCR |= CAN_MDLCR_TGT;
 549   2              CAN->PSR = CAN_Page_TxMailBox2;
 550   2              CAN->Page.TxMailbox.MDLCR |= CAN_MDLCR_TGT;
 551   2              CAN->PSR = CAN_Page_RxFifo;
 552   2              CAN->Page.RxFIFO.MDLCR |= CAN_MDLCR_TGT;
 553   2          }
 554   1          else
 555   1          {
 556   2              /*Disable the TTCM mode */
 557   2              CAN->MCR &= ((uint8_t)~CAN_MCR_TTCM);
 558   2              /*Reset TGT bits setting in Tx and FIFO pages*/
 559   2              CAN->PSR = CAN_Page_TxMailBox0;
 560   2              CAN->Page.TxMailbox.MDLCR &= ((uint8_t)~CAN_MDLCR_TGT);
 561   2              CAN->PSR = CAN_Page_TxMailBox1;
 562   2              CAN->Page.TxMailbox.MDLCR &= ((uint8_t)~CAN_MDLCR_TGT);
 563   2              CAN->PSR = CAN_Page_TxMailBox2;
 564   2              CAN->Page.TxMailbox.MDLCR &= ((uint8_t)~CAN_MDLCR_TGT);
 565   2              CAN->PSR = CAN_Page_RxFifo;
 566   2              CAN->Page.RxFIFO.MDLCR &= ((uint8_t)~CAN_MDLCR_TGT);
 567   2          }
 568   1          /*Restore Last Page*/
 569   1          CAN_SelectPage(can_page);
 570   1      }
 571          
 572          /**
 573            * @brief  Initiates the transmission of a message.
 574            * @param   CAN_Id the ID number of the message, its size depends on @ref CAN_IDE value.
 575            * @param[in] CAN_IDE the ID type of the message, this parameter can be one of the @ref CAN_Id_TypeDef enumeration.
 576            * @param[in] CAN_RTR the message type, this parameter can be one of the @ref CAN_RTR_TypeDef enumeration.
 577            * @param[in] CAN_DLC the number of data in the message type, this parameter can be a value between 0 to 7.
 578            * @param[in] CAN_Data pointer to a the @ref uint8_t table which contains data to sent.
 579            * @retval Transmit Status, this returned value can be one of the @ref CAN_TxStatus_TypeDef enumeration.
 580            */
 581          CAN_TxStatus_TypeDef CAN_Transmit(uint32_t CAN_Id,
 582                                            CAN_Id_TypeDef CAN_IDE,
 583                                            CAN_RTR_TypeDef CAN_RTR,
 584                                            uint8_t CAN_DLC,
 585                                            uint8_t *CAN_Data)
 586          {
 587   1          CAN_TxStatus_TypeDef CAN_TxStatus = CAN_TxStatus_NoMailBox;
 588   1          CAN_Page_TypeDef can_page = CAN_GetSelectedPage();
 589   1          /* Check the parameters */
 590   1          assert_param(IS_CAN_IDTYPE_OK(CAN_IDE));
 591   1          if (CAN_IDE != CAN_Id_Standard)
 592   1          {
 593   2              assert_param(IS_CAN_EXTID_OK(CAN_Id));
 594   2          }
 595   1          else
 596   1          {
 597   2              assert_param(IS_CAN_STDID_OK(CAN_Id));
 598   2          }
 599   1          assert_param(IS_CAN_RTR_OK(CAN_RTR));
 600   1          assert_param(IS_CAN_DLC_OK(CAN_DLC));
 601   1          /* Select one empty transmit mailbox */
 602   1          if ((CAN->TPR & CAN_TPR_TME0) == CAN_TPR_TME0)
 603   1          {
 604   2              CAN_TxStatus = CAN_TxStatus_MailBox0Ok;
 605   2          }
 606   1          else if ((CAN->TPR & CAN_TPR_TME1) == CAN_TPR_TME1)
 607   1          {
 608   2              CAN_TxStatus = CAN_TxStatus_MailBox1Ok;
 609   2          }
 610   1          else if ((CAN->TPR & CAN_TPR_TME2) == CAN_TPR_TME2)
 611   1          {
 612   2              CAN_TxStatus = CAN_TxStatus_MailBox2Ok;
 613   2          }
 614   1          else
 615   1          {
 616   2              CAN_TxStatus = CAN_TxStatus_NoMailBox;
 617   2          }
 618   1          if (CAN_TxStatus != CAN_TxStatus_NoMailBox)
 619   1          {
 620   2              CAN->PSR = (uint8_t)CAN_TxStatus;
 621   2              /* Set up the Id */
 622   2              if (CAN_IDE != CAN_Id_Standard)
 623   2              {
 624   3                  CAN_Id &= (uint32_t)CAN_EXTID_SIZE;
 625   3                  CAN->Page.TxMailbox.MIDR4 = (uint8_t)(CAN_Id);
 626   3                  CAN_Id = CAN_Id>>8;
 627   3                  CAN->Page.TxMailbox.MIDR3 = (uint8_t)(CAN_Id);
 628   3                  CAN_Id = CAN_Id>>8;
 629   3                  CAN->Page.TxMailbox.MIDR2 = (uint8_t)(CAN_Id);
 630   3                  CAN_Id = CAN_Id>>8;
 631   3                  CAN->Page.TxMailbox.MIDR1 = (uint8_t)(CAN_Id |CAN_IDE | CAN_RTR);
 632   3              }
 633   2              else
 634   2              {
 635   3                  CAN_Id &= (uint16_t)CAN_STDID_SIZE;
 636   3                  CAN->Page.TxMailbox.MIDR1 = (uint8_t)((CAN_Id>>6) | (CAN_RTR)) ;
 637   3                  CAN->Page.TxMailbox.MIDR2 = (uint8_t)(CAN_Id<<2);
 638   3              }
 639   2              /* Set up the DLC                 */
 640   2              /*clear old DLC value*/
 641   2              CAN->Page.TxMailbox.MDLCR &= (uint8_t)0xF0;
 642   2              /*set the new value of DLC*/
 643   2              CAN->Page.TxMailbox.MDLCR |= CAN_DLC;
 644   2              /* Set up the data field */
 645   2              CAN->Page.TxMailbox.MDAR1 = CAN_Data[0];
 646   2              CAN->Page.TxMailbox.MDAR2 = CAN_Data[1];
 647   2              CAN->Page.TxMailbox.MDAR3 = CAN_Data[2];
 648   2              CAN->Page.TxMailbox.MDAR4 = CAN_Data[3];
 649   2              CAN->Page.TxMailbox.MDAR5 = CAN_Data[4];
 650   2              CAN->Page.TxMailbox.MDAR6 = CAN_Data[5];
 651   2              CAN->Page.TxMailbox.MDAR7 = CAN_Data[6];
 652   2              CAN->Page.TxMailbox.MDAR8 = CAN_Data[7];
 653   2              /* Request transmission */
 654   2              CAN->Page.TxMailbox.MCSR |= CAN_MCSR_TXRQ;
 655   2          }
 656   1          /*Restore Last Page*/
 657   1          CAN_SelectPage(can_page);
 658   1          return (CAN_TxStatus_TypeDef)CAN_TxStatus;
 659   1      }
 660          
 661          /**
 662            * @brief  Checks the transmission of a message.
 663            * @param   TransmitMailbox: the number of the mailbox that is used for transmission, can be on of  @ref CAN_TransmitMailBox_TypeDef.
 664            * @retval CAN_TxStatus_Ok if the CAN driver transmits the message, CAN_TxStatus_Failed in an other case.
 665            */
 666          CAN_TxStatus_TypeDef CAN_TransmitStatus(CAN_TransmitMailBox_TypeDef CAN_TransmitMailbox)
 667          {
 668   1          /* RQCP, TXOK and TME bits */
 669   1          CAN_TxStatus_TypeDef tstate = CAN_TxStatus_Failed;
 670   1          uint8_t tmpstate=0;
 671   1      
 672   1          /* Check the parameters */
 673   1          assert_param(IS_CAN_TRANSMITMAILBOX_OK(CAN_TransmitMailbox));
 674   1      
 675   1          switch (CAN_TransmitMailbox)
 676   1          {
 677   2          case (CAN_TransmitMailBox_0): tmpstate = (uint8_t)((CAN->TSR & (uint8_t)(CAN_TSR_RQCP0|CAN_TSR_TXOK0)));
 678   2              tmpstate |= (uint8_t)((CAN->TPR & CAN_TPR_TME0));
 679   2              break;
 680   2          case (CAN_TransmitMailBox_1): tmpstate = (uint8_t)((uint8_t)(CAN->TSR & (uint8_t)(CAN_TSR_RQCP1|CAN_TSR_TXOK1))>>1);
 681   2              tmpstate |= (uint8_t)((uint8_t)(CAN->TPR & CAN_TPR_TME1) >> 1);
 682   2              break;
 683   2          case (CAN_TransmitMailBox_2): tmpstate = (uint8_t)((uint8_t)(CAN->TSR & (uint8_t)(CAN_TSR_RQCP2|CAN_TSR_TXOK2))>>2);
 684   2              tmpstate |= (uint8_t)((uint8_t)(CAN->TPR & CAN_TPR_TME2) >> 2);
 685   2              break;
 686   2          default:
 687   2              tstate = CAN_TxStatus_Failed;
 688   2              break;
 689   2          }
 690   1      
 691   1          switch (tmpstate)
 692   1          {
 693   2              /*transmit pending  */
 694   2          case (0x00): tstate = CAN_TxStatus_Pending;
 695   2              break;
 696   2              /* transmit failed  */
 697   2          case (0x05): tstate = CAN_TxStatus_Failed;
 698   2              break;
 699   2              /* transmit succeeded */
 700   2          case (0x15): tstate = CAN_TxStatus_Ok;
 701   2              break;
 702   2              /* transmit mailbox is empty : no activity on this TX mail box */
 703   2          case (0x04): tstate = CAN_TxStatus_MailBoxEmpty;
 704   2              break;
 705   2          default:
 706   2              tstate = CAN_TxStatus_Failed;
 707   2              break;
 708   2          }
 709   1      
 710   1          return (CAN_TxStatus_TypeDef)tstate;
 711   1      }
 712          
 713          /**
 714            * @brief  Cancels a transmit request.
 715            * @param   TransmitMailbox : the Transmission mailbox, can be one of CAN_TransmitMailBox_TypeDef
 716            * @retval None
 717            */
 718          void CAN_CancelTransmit(CAN_TransmitMailBox_TypeDef CAN_TransmitMailbox)
 719          {
 720   1          CAN_Page_TypeDef can_page = CAN_GetSelectedPage();
 721   1          /* Check the parameters */
 722   1          assert_param(IS_CAN_TRANSMITMAILBOX_OK(CAN_TransmitMailbox));
 723   1          /*switch to the specific page */
 724   1          CAN->PSR = (uint8_t)CAN_TransmitMailbox;
 725   1          /* abort transmission */
 726   1          CAN->Page.TxMailbox.MCSR |= CAN_MCSR_ABRQ;
 727   1          /*Restore Last Page*/
 728   1          CAN_SelectPage(can_page);
 729   1      }
 730          
 731          /**
 732            * @brief   Releases the CAN FIFO.
 733            * @param  None
 734            * @retval None
 735            */
 736          void CAN_FIFORelease(void)
 737          {
 738   1          /* Release FIFO*/
 739   1          CAN->RFR = CAN_RFR_RFOM; /*rc-w1*/
 740   1      }
 741          
 742          /**
 743            * @brief  Returns the number of pending messages.
 744            * @retval Number of pending messages.
 745            */
 746          CAN_NbrPendingMessage_TypeDef CAN_MessagePending(void)
 747          {
 748   1          CAN_NbrPendingMessage_TypeDef msgpending = CAN_NbrPendingMessage_0;
 749   1          msgpending = (CAN_NbrPendingMessage_TypeDef)(CAN->RFR & CAN_RFR_FMP01);
 750   1          return (CAN_NbrPendingMessage_TypeDef)msgpending;
 751   1      }
 752          
 753          /**
 754            * @brief   Receives a message which contains CAN Id, IDE, RTR
 755            * DLC, datas and FMI number.
 756            * In order to get these data, use CAN_GetReceivedId(), CAN_GetReceivedIDE(), CAN_GetReceivedRTR(),
 757            * CAN_GetReceivedDLC(), CAN_GetReceivedFMI() and CAN_GetReceivedData() functions.
 758            * @param  None
 759            * @retval None
 760            */
 761          void CAN_Receive(void)
 762          {
 763   1          CAN_Page_TypeDef can_page = CAN_GetSelectedPage();
 764   1          uint32_t temp1 = 0, temp2 = 0, temp3 = 0;
 765   1      
 766   1          /* select Fifo page*/
 767   1          CAN->PSR = CAN_Page_RxFifo;
 768   1      
 769   1          /* Get the Id */
 770   1          _IDE = (uint8_t)(CAN->Page.RxFIFO.MIDR1 & CAN_Id_Extended);
 771   1          if (_IDE != CAN_Id_Standard)
 772   1          {
 773   2            temp1 = ((uint32_t)((uint32_t)CAN->Page.RxFIFO.MIDR3) << 8);
 774   2            temp2 = ((uint32_t)((uint32_t)CAN->Page.RxFIFO.MIDR2) << 16);  
 775   2            temp3 = ((uint32_t)((uint32_t)CAN->Page.RxFIFO.MIDR1 & 0x1F) << 24);
 776   2      
 777   2            _Id = (uint32_t)CAN_EXTID_SIZE & ((CAN->Page.RxFIFO.MIDR4) | temp1 | temp2 | temp3 );
 778   2          }
 779   1          else
 780   1          {
 781   2              temp1 = (uint16_t)((uint16_t)((uint16_t)((uint16_t)CAN->Page.RxFIFO.MIDR1 & 0x1F) << 6));
 782   2              temp2 = (uint16_t)((uint16_t)((uint16_t)CAN->Page.RxFIFO.MIDR2 >> 2)&0x3F);
 783   2      
 784   2            _Id = (uint16_t)CAN_STDID_SIZE & (temp1 | temp2 );
 785   2          }
 786   1      
 787   1          _RTR = (uint8_t)((uint8_t)0x20 & CAN->Page.RxFIFO.MIDR1);
 788   1      
 789   1          /* Get the DLC */
 790   1          _DLC = (uint8_t)(CAN->Page.RxFIFO.MDLCR & (uint8_t)0x0F);
 791   1      
 792   1          /* Get the FMI */
 793   1          _FMI = CAN->Page.RxFIFO.MFMI;
 794   1      
 795   1          /* Get the data field */
 796   1          _Data[0] = CAN->Page.RxFIFO.MDAR1;
 797   1          _Data[1] = CAN->Page.RxFIFO.MDAR2;
 798   1          _Data[2] = CAN->Page.RxFIFO.MDAR3;
 799   1          _Data[3] = CAN->Page.RxFIFO.MDAR4;
 800   1          _Data[4] = CAN->Page.RxFIFO.MDAR5;
 801   1          _Data[5] = CAN->Page.RxFIFO.MDAR6;
 802   1          _Data[6] = CAN->Page.RxFIFO.MDAR7;
 803   1          _Data[7] = CAN->Page.RxFIFO.MDAR8;
 804   1      
 805   1          /* Release the FIFO */
 806   1          CAN_FIFORelease();
 807   1          /*Restore Last Page*/
 808   1          CAN_SelectPage(can_page);
 809   1      }
 810          
 811          /**
 812            * @brief  Gets the  CAN Id of the received message.
 813            * @param  None
 814            * @retval the received CAN message Id.
 815            * @par Required preconditions:
 816            * This function is used to get data loaded by CAN_Receive function.
 817            * Before using this function, CAN_Receive function must be called.
 818            */
 819          uint32_t CAN_GetReceivedId(void)
 820          {
 821   1          return (_Id);
 822   1      }
 823          
 824          /**
 825            * @brief  Gets the  CAN IDE of the received message.
 826            * @param  None
 827            * @retval the received CAN message IDE.
 828            * @par Required preconditions:
 829            * This function is used to get data loaded by CAN_Receive function.
 830            * Before using this function, CAN_Receive function must be called.
 831            */
 832          CAN_Id_TypeDef CAN_GetReceivedIDE(void)
 833          {
 834   1          return (CAN_Id_TypeDef)(_IDE);
 835   1      }
 836          
 837          /**
 838            * @brief  Gets the  CAN RTR of the received message.
 839            * @param  None
 840            * @retval the received CAN message RTR.
 841            * @par Required preconditions:
 842            * This function is used to get data loaded by CAN_Receive function.
 843            * Before using this function, CAN_Receive function must be called.
 844            */
 845          CAN_RTR_TypeDef CAN_GetReceivedRTR(void)
 846          {
 847   1          return (CAN_RTR_TypeDef)(_RTR);
 848   1      }
 849          
 850          /**
 851            * @brief  Gets the  CAN DLC of the received message.
 852            * @param  None
 853            * @retval the received CAN message DLC.
 854            * @par Required preconditions:
 855            * This function is used to get data loaded by CAN_Receive function.
 856            * Before using this function, CAN_Receive function must be called.
 857            */
 858          uint8_t CAN_GetReceivedDLC(void)
 859          {
 860   1          return (_DLC);
 861   1      }
 862          
 863          /**
 864            * @brief  Gets the  CAN Data of the received message.
 865            * @param   CAN_DataIndexe : number of the received Data, it can
 866            *  be an integer between 0 to 7.
 867            * @retval the received CAN message ith Data.
 868            * @par Required preconditions:
 869            * This function is used to get data loaded by CAN_Receive function.
 870            * Before using this function, CAN_Receive function must be called.
 871            */
 872          uint8_t CAN_GetReceivedData(uint8_t CAN_DataIndex)
 873          {
 874   1          assert_param(IS_CAN_DLC_OK(CAN_DataIndex));
 875   1          return (_Data[CAN_DataIndex]);
 876   1      }
 877          
 878          /**
 879            * @brief  Gets the  CAN FMI of the received message.
 880            * @param  None
 881            * @retval the received CAN message FMI.
 882            * @par Required preconditions:
 883            * This function is used to get data loaded by CAN_Receive function.
 884            * Before using this function, CAN_Receive function must be called.
 885            */
 886          uint8_t CAN_GetReceivedFMI(void)
 887          {
 888   1          return (_FMI);
 889   1      }
 890          
 891          /**
 892            * @brief  Returns the Received time stamp.
 893            * @param  None
 894            * @retval uint16_t the received  time stamp.
 895            */
 896          uint16_t CAN_GetMessageTimeStamp(void)
 897          {
 898   1          uint16_t timestamp = 0;
 899   1          CAN_Page_TypeDef can_page = CAN_GetSelectedPage();
 900   1      
 901   1          /*switch to the specific page */
 902   1          CAN->PSR = CAN_Page_RxFifo;
 903   1          /* Get the Received Time stamp */
 904   1          timestamp = CAN->Page.RxFIFO.MTSRL;
 905   1          timestamp |= (uint16_t)(((uint16_t)CAN->Page.RxFIFO.MTSRH)<<8);
 906   1      
 907   1          /*Restore Last Page*/
 908   1          CAN_SelectPage(can_page);
 909   1      
 910   1          return (uint16_t)(timestamp);
 911   1      }
 912          
 913          /**
 914            * @brief  Enters the Sleep low power mode.
 915            * @param  None
 916            * @retval  CAN_Sleep_Ok if sleep entered, CAN_Sleep_Failed in an other case.
 917            */
 918          CAN_Sleep_TypeDef CAN_Sleep(void)
 919          {
 920   1      
 921   1          CAN_Sleep_TypeDef sleepstatus = CAN_Sleep_Failed;
 922   1      
 923   1          /* Request Sleep mode */
 924   1          CAN->MCR = (uint8_t)((uint8_t)(CAN->MCR & (uint8_t)(~CAN_MCR_INRQ)) | CAN_MCR_SLEEP);
 925   1      
 926   1          /* Sleep mode status */
 927   1          if ((CAN->MSR & (CAN_MSR_SLAK|CAN_MSR_INAK)) == CAN_MSR_SLAK)
 928   1          {
 929   2              /* Sleep mode not entered */
 930   2              sleepstatus =  CAN_Sleep_Ok;
 931   2          }
 932   1      
 933   1          /* At this step, sleep mode status */
 934   1          return (CAN_Sleep_TypeDef) sleepstatus;
 935   1      }
 936          
 937          /**
 938            * @brief  Wakes the CAN up.
 939            * @param  None
 940            * @retval CAN_WakeUp_Ok if sleep mode left, CAN_WakeUp_Failed in an other  case.
 941            */
 942          CAN_WakeUp_TypeDef CAN_WakeUp(void)
 943          {
 944   1          CAN_WakeUp_TypeDef wakeupstatus = CAN_WakeUp_Failed;
 945   1      
 946   1          /* Wake up request */
 947   1          CAN->MCR &= (uint8_t)(~CAN_MCR_SLEEP);
 948   1      
 949   1          /* Sleep mode status */
 950   1          if ((CAN->MSR & CAN_MSR_SLAK) != CAN_MSR_SLAK)
 951   1          {
 952   2              /* Sleep mode exited */
 953   2              wakeupstatus = CAN_WakeUp_Ok;
 954   2          }
 955   1      
 956   1          /* At this step, sleep mode status */
 957   1          return (CAN_WakeUp_TypeDef)wakeupstatus;
 958   1      }
 959          
 960          /**
 961            * @brief  Select the CAN Operation mode.
 962            * @param  CAN_OperatingMode CAN Operating Mode ,
 963            *         this parameter can be one of @ref CAN_OperatingMode_TypeDef enumeration.
 964            * @retval the status of the requested mode which can be 
 965            *         - CAN_ModeStatus_Failed    CAN failed entring the specific mode
 966            *         - CAN_ModeStatus_Success  CAN Succeed entring the specific mode 
 967          
 968            */
 969          CAN_ModeStatus_TypeDef CAN_OperatingModeRequest(CAN_OperatingMode_TypeDef CAN_OperatingMode)
 970          {
 971   1      
 972   1          uint16_t timeout = CAN_ACKNOWLEDGE_TIMEOUT;
 973   1          uint8_t modestatus = 0;
 974   1      
 975   1          assert_param(IS_CAN_OPERATINGMODE_OK(CAN_OperatingMode));
 976   1      
 977   1          if (CAN_OperatingMode == CAN_OperatingMode_Initialization)
 978   1          {
 979   2              /* Request initialisation */
 980   2              CAN->MCR = (uint8_t)((uint8_t)(CAN->MCR & (uint8_t)(~CAN_MCR_SLEEP)) | CAN_MCR_INRQ);
 981   2      
 982   2              /* Wait the acknowledge */
 983   2              while (((CAN->MSR & CAN_MODE_MASK) != CAN_MSR_INAK) && (timeout != 0))
 984   2              {
 985   3                  timeout--;
 986   3              }
 987   2              if ((CAN->MSR & CAN_MODE_MASK) != CAN_MSR_INAK)
 988   2              {
 989   3                modestatus = CAN_ModeStatus_Failed;
 990   3              }
 991   2              else
 992   2              {
 993   3                modestatus = CAN_ModeStatus_Success;  
 994   3              }
 995   2      
 996   2          }
 997   1          else  if (CAN_OperatingMode == CAN_OperatingMode_Normal)
 998   1          {
 999   2              /* Request leave initialisation and sleep mode  and enter Normal mode */
1000   2              CAN->MCR &= (uint8_t)(~(CAN_MCR_SLEEP|CAN_MCR_INRQ));
1001   2      
1002   2              /* Wait the acknowledge */
1003   2              while (((CAN->MSR & CAN_MODE_MASK) != 0) && (timeout!=0))
1004   2              {
1005   3                  timeout--;
1006   3              }
1007   2              if ((CAN->MSR & CAN_MODE_MASK) != 0)
1008   2              {
1009   3                modestatus = CAN_ModeStatus_Failed;
1010   3              }
1011   2              else
1012   2              {
1013   3                modestatus = CAN_ModeStatus_Success;  
1014   3              }
1015   2          }
1016   1          else  if (CAN_OperatingMode == CAN_OperatingMode_Sleep)
1017   1          {
1018   2              /* Request Sleep mode */
1019   2              CAN->MCR = (uint8_t)((uint8_t)(CAN->MCR & (uint8_t)(~CAN_MCR_INRQ)) | CAN_MCR_SLEEP);
1020   2      
1021   2              /* Wait the acknowledge */
1022   2              while (((CAN->MSR & CAN_MODE_MASK) != CAN_MSR_SLAK) && (timeout!=0))
1023   2              {
1024   3                  timeout--;
1025   3              }
1026   2              if ((CAN->MSR & CAN_MODE_MASK) != CAN_MSR_SLAK)
1027   2              {
1028   3                 modestatus = CAN_ModeStatus_Failed;  
1029   3              }
1030   2              else
1031   2              {
1032   3                 modestatus = CAN_ModeStatus_Success;  
1033   3              }
1034   2          }
1035   1          else
1036   1          {
1037   2               modestatus = CAN_ModeStatus_Failed;
1038   2          }
1039   1        return (CAN_ModeStatus_TypeDef)(modestatus);
1040   1      }
1041          
1042          /**
1043            * @brief  Gets the  Last Error Code.
1044            * @param  None
1045            * @retval Error Code.
1046            */
1047          CAN_ErrorCode_TypeDef CAN_GetLastErrorCode(void)
1048          {
1049   1          CAN_ErrorCode_TypeDef errcode = CAN_ErrorCode_NoErr;
1050   1          CAN_Page_TypeDef can_page = CAN_GetSelectedPage();
1051   1      
1052   1          CAN->PSR = CAN_Page_Config;
1053   1          errcode = (CAN_ErrorCode_TypeDef)((CAN->Page.Config.ESR) & (CAN_ESR_LEC));
1054   1      
1055   1          /*Restore Last Page*/
1056   1          CAN_SelectPage(can_page);
1057   1      
1058   1          return (CAN_ErrorCode_TypeDef)(errcode);
1059   1      }
1060          
1061          /**
1062            * @brief  Clears the CAN's pending flags.
1063            * @param   CAN_FLAG : Flag to be cleared, can be one of the following parameters:
1064            *          CAN_FLAG_RQCP0            Request MailBox0  Flag
1065            *          CAN_FLAG_RQCP1            Request MailBox1  Flag
1066            *          CAN_FLAG_RQCP2            Request MailBox2  Flag
1067            *       CAN_FLAG_FF               FIFO Full  Flag
1068            *       CAN_FLAG_FOV              FIFO Overrun  Flag
1069            *       CAN_FLAG_WKU              wake up   Flag
1070            *          CAN_FLAG_LEC               Last error code Flag
1071            * @retval None
1072            */
1073          void CAN_ClearFlag(CAN_FLAG_TypeDef CAN_Flag)
1074          {
1075   1          CAN_Page_TypeDef can_page = (CAN_Page_TypeDef)0;
1076   1          /* Check the parameters */
1077   1          assert_param(IS_CAN_FLAG_CLEAR_OK(CAN_Flag));
1078   1          if (((uint16_t)CAN_Flag & 0x0700)!= RESET)
1079   1          {
1080   2              if (((uint16_t)CAN_Flag & 0x020B)!= RESET)
1081   2              {
1082   3                  /*Receive Flags*/
1083   3                  CAN->RFR = (uint8_t)(CAN_Flag);
1084   3              }
1085   2              else if (((uint16_t)CAN_Flag & 0x0403)!= RESET)
1086   2              {
1087   3                  /*Transmit Flags*/
1088   3                  CAN->TSR = (uint8_t)(CAN_Flag);
1089   3              }
1090   2              else /*if((CAN_Flag & 0x0108)!=(uint16_t)RESET)*/
1091   2              {
1092   3                  /*wake up Flags*/
1093   3                  CAN->MSR = (uint8_t)(CAN_Flag);
1094   3              }
1095   2          }
1096   1          else
1097   1          {
1098   2              /*Error Flags*/
1099   2              can_page = CAN_GetSelectedPage();
1100   2      
1101   2              /* Clear the selected CAN flags */
1102   2              CAN->PSR = CAN_Page_Config;
1103   2              CAN->Page.Config.ESR = (uint8_t)RESET;
1104   2      
1105   2              /*Restore Last Page*/
1106   2              CAN_SelectPage(can_page);
1107   2          }
1108   1      }
1109          
1110          /**
1111            * @brief  Checks whether the specified CAN flag is set or not.
1112            * @param   CAN_FLAG: specifies the flag to check, can be one of @ref CAN_FLAG_TypeDef enumeration.
1113            * @retval The new state of CAN_FLAG which can be one of @ref FlagStatus.
1114            */
1115          FlagStatus CAN_GetFlagStatus(CAN_FLAG_TypeDef CAN_Flag)
1116          {
1117   1          FlagStatus bitstatus = RESET;
1118   1          CAN_Page_TypeDef can_page = (CAN_Page_TypeDef)0;
1119   1      
1120   1          /* Check the parameters */
1121   1          assert_param(IS_CAN_FLAG_STATUS_OK(CAN_Flag));
1122   1      
1123   1          if (((uint16_t)CAN_Flag & 0x0700)!= RESET)
1124   1          {
1125   2              if (((uint16_t)CAN_Flag & 0x020B)!= RESET)
1126   2              {
1127   3                  /*Receive Flags*/
1128   3                  if ((CAN->RFR & (uint16_t)CAN_Flag )!= RESET)
1129   3                  {
1130   4                      /* CAN_FLAG is set */
1131   4                      bitstatus = SET;
1132   4                  }
1133   3                  else
1134   3                  {
1135   4                      /* CAN_FLAG is reset */
1136   4                      bitstatus = RESET;
1137   4                  }
1138   3      
1139   3              }
1140   2              else if (((uint16_t)CAN_Flag & 0x0403)!= RESET)
1141   2              {
1142   3                  /*Transmit Flags*/
1143   3                  if ((CAN->TSR & (uint16_t)CAN_Flag )!= RESET)
1144   3                  {
1145   4                      /* CAN_FLAG is set */
1146   4                      bitstatus = SET;
1147   4                  }
1148   3                  else
1149   3                  {
1150   4                      /* CAN_FLAG is reset */
1151   4                      bitstatus = RESET;
1152   4                  }
1153   3              }
1154   2              else /*if((CAN_Flag & 0x0108)!=(uint16_t)RESET)*/
1155   2              {
1156   3                  /*wake up Flags*/
1157   3                  if ((CAN->MSR & (uint16_t)CAN_Flag )!= RESET)
1158   3                  {
1159   4                      /* CAN_FLAG is set */
1160   4                      bitstatus = SET;
1161   4                  }
1162   3                  else
1163   3                  {
1164   4                      /* CAN_FLAG is reset */
1165   4                      bitstatus = RESET;
1166   4                  }
1167   3              }
1168   2          }
1169   1          else
1170   1          {
1171   2              /*Error Flags*/
1172   2              can_page = CAN_GetSelectedPage();
1173   2      
1174   2              CAN->PSR = CAN_Page_Config;
1175   2              if ((CAN->Page.Config.ESR & (uint16_t)CAN_Flag) != RESET)
1176   2              {
1177   3                  /* CAN_FLAG is set */
1178   3                  bitstatus = SET;
1179   3              }
1180   2              else
1181   2              {
1182   3                  /* CAN_FLAG is reset */
1183   3                  bitstatus = RESET;
1184   3              }
1185   2              /*Restore Last Page*/
1186   2              CAN_SelectPage(can_page);
1187   2          }
1188   1      
1189   1      
1190   1          /* Return the CAN_FLAG status */
1191   1          return  (FlagStatus)bitstatus;
1192   1      }
1193          
1194          /**
1195            * @brief  Checks whether the specified CAN interrupt has occurred or not.
1196            * @param   CAN_IT: specifies the CAN interrupt source to check, can be one of @ref CAN_IT_TypeDef.
1197            * @retval The new state of CAN_IT, which can be one of @ref ITStatus.
1198            */
1199          ITStatus CAN_GetITStatus(CAN_IT_TypeDef CAN_IT)
1200          {
1201   1          ITStatus pendingbitstatus = RESET;
1202   1          CAN_Page_TypeDef can_page = CAN_GetSelectedPage();
1203   1      
1204   1          /* Check the parameters */
1205   1          assert_param(IS_CAN_IT_STATUS_OK(CAN_IT));
1206   1      
1207   1      
1208   1          switch (CAN_IT)
1209   1          {
1210   2          case CAN_IT_TME:
1211   2              if ((CAN->IER & CAN_IER_TMEIE) !=RESET)
1212   2              {
1213   3                  pendingbitstatus = CheckITStatus(CAN->TSR, CAN_TSR_RQCP012);
1214   3              }
1215   2              else
1216   2              {
1217   3                  pendingbitstatus = RESET;
1218   3              }
1219   2              break;
1220   2      
1221   2          case CAN_IT_FMP:
1222   2              if ((CAN->IER & CAN_IER_FMPIE) !=RESET)
1223   2              {
1224   3                  pendingbitstatus = CheckITStatus(CAN->RFR, CAN_RFR_FMP01);
1225   3              }
1226   2              else
1227   2              {
1228   3                  pendingbitstatus = RESET;
1229   3              }
1230   2              break;
1231   2          case CAN_IT_FF:
1232   2              if ((CAN->IER & CAN_IER_FFIE) !=RESET)
1233   2              {
1234   3                  pendingbitstatus = CheckITStatus(CAN->RFR, CAN_RFR_FULL);
1235   3              }
1236   2              else
1237   2              {
1238   3                  pendingbitstatus = RESET;
1239   3              }
1240   2              break;
1241   2          case CAN_IT_FOV:
1242   2              if ((CAN->IER & CAN_IER_FOVIE) !=RESET)
1243   2              {
1244   3                  pendingbitstatus = CheckITStatus(CAN->RFR, CAN_RFR_FOVR);
1245   3              }
1246   2              else
1247   2              {
1248   3                  pendingbitstatus = RESET;
1249   3              }
1250   2              break;
1251   2          case CAN_IT_WKU:
1252   2              if ((CAN->IER & CAN_IER_WKUIE) !=RESET)
1253   2              {
1254   3                  pendingbitstatus = CheckITStatus(CAN->MSR, CAN_MSR_WKUI);
1255   3              }
1256   2              else
1257   2              {
1258   3                  pendingbitstatus = RESET;
1259   3              }
1260   2              break;
1261   2      
1262   2          case CAN_IT_ERR:
1263   2              CAN->PSR = CAN_Page_Config;
1264   2              if ((CAN->Page.Config.EIER & CAN_EIER_ERRIE) !=RESET)
1265   2              {
1266   3                  pendingbitstatus = CheckITStatus(CAN->Page.Config.ESR, CAN_ESR_EWGF|CAN_ESR_EPVF|CAN_ESR_BOFF|CAN_ESR_LEC);
1267   3              }
1268   2              else
1269   2              {
1270   3                  pendingbitstatus = RESET;
1271   3              }
1272   2              break;
1273   2      
1274   2          case CAN_IT_EWG:
1275   2              CAN->PSR = CAN_Page_Config;
1276   2              if ((CAN->Page.Config.EIER & CAN_EIER_EWGIE) !=RESET)
1277   2              {
1278   3                  pendingbitstatus = CheckITStatus(CAN->Page.Config.ESR, CAN_ESR_EWGF);
1279   3              }
1280   2              else
1281   2              {
1282   3                  pendingbitstatus = RESET;
1283   3              }
1284   2              break;
1285   2      
1286   2          case CAN_IT_EPV:
1287   2              CAN->PSR = CAN_Page_Config;
1288   2              if ((CAN->Page.Config.EIER & CAN_EIER_EPVIE) !=RESET)
1289   2              {
1290   3                  pendingbitstatus = CheckITStatus(CAN->Page.Config.ESR, CAN_ESR_EPVF);
1291   3              }
1292   2              else
1293   2              {
1294   3                  pendingbitstatus = RESET;
1295   3              }
1296   2              break;
1297   2          case CAN_IT_BOF:
1298   2              CAN->PSR = CAN_Page_Config;
1299   2              if ((CAN->Page.Config.EIER & CAN_EIER_BOFIE) !=RESET)
1300   2              {
1301   3                  pendingbitstatus = CheckITStatus(CAN->Page.Config.ESR, CAN_ESR_BOFF);
1302   3              }
1303   2              else
1304   2              {
1305   3                  pendingbitstatus = RESET;
1306   3              }
1307   2              break;
1308   2          case CAN_IT_LEC:
1309   2              CAN->PSR = CAN_Page_Config;
1310   2              if ((CAN->Page.Config.EIER & CAN_EIER_LECIE) !=RESET)
1311   2              {
1312   3                  pendingbitstatus = CheckITStatus(CAN->Page.Config.ESR, CAN_ESR_LEC);
1313   3              }
1314   2              else
1315   2              {
1316   3                  pendingbitstatus = RESET;
1317   3              }
1318   2              break;
1319   2          default :
1320   2              pendingbitstatus = RESET;
1321   2              break;
1322   2          }
1323   1          /*Restore Last Page*/
1324   1          CAN_SelectPage(can_page);
1325   1          /* Return the CAN_IT status */
1326   1          return  (ITStatus)pendingbitstatus;
1327   1      }
1328          
1329          /**
1330            * @brief   Clears the CANs interrupt pending bits.
1331            * @param   CAN_IT: specifies the interrupt pending bit to clear,
1332            *  can be one of the following parameters:
1333            *                            CAN_IT_TME = Transmit mailbox empty interrupt
1334            *                             CAN_IT_FF =FIFO  full    interrupt
1335            *                            CAN_IT_FOV =FIFO  overrun  interrupt
1336            *                             CAN_IT_WKU =Wake-up interrupt
1337            *                             CAN_IT_ERR =General Error interrupt
1338            *                             CAN_IT_EWG =Error warning interrupt
1339            *                             CAN_IT_EPV  =Error passive  interrupt
1340            *                             CAN_IT_BOF = Bus-off   interrupt
1341            *                             CAN_IT_LEC  =Last error code interrupt
1342            * @retval None
1343            */
1344          void CAN_ClearITPendingBit(CAN_IT_TypeDef CAN_IT)
1345          {
1346   1          CAN_Page_TypeDef can_page = CAN_GetSelectedPage();
1347   1          /* Check the parameters */
1348   1          assert_param(IS_CAN_IT_PENDING_BIT_OK(CAN_IT));
1349   1      
1350   1          switch (CAN_IT)
1351   1          {
1352   2          case CAN_IT_TME:
1353   2              CAN->TSR = CAN_TSR_RQCP012;/* rc_w1*/
1354   2              break;
1355   2      
1356   2          case CAN_IT_FF:
1357   2              CAN->RFR = CAN_RFR_FULL; /* rc_w1*/
1358   2              break;
1359   2      
1360   2          case CAN_IT_FOV:
1361   2              CAN->RFR = CAN_RFR_FOVR; /* rc_w1*/
1362   2              break;
1363   2      
1364   2          case CAN_IT_WKU:
1365   2              CAN->MSR = CAN_MSR_WKUI;  /* rc_w1*/
1366   2              break;
1367   2      
1368   2          case CAN_IT_ERR:
1369   2              CAN->PSR = CAN_Page_Config;
1370   2              CAN->Page.Config.ESR = (uint8_t)CAN_ESR_RESET_VALUE;
1371   2              CAN->MSR = CAN_MSR_ERRI;
1372   2              break;
1373   2      
1374   2          case CAN_IT_EWG:
1375   2              CAN->MSR = CAN_MSR_ERRI;
1376   2              break;
1377   2      
1378   2          case CAN_IT_EPV:
1379   2              CAN->MSR = CAN_MSR_ERRI;
1380   2              break;
1381   2      
1382   2          case CAN_IT_BOF:
1383   2              CAN->MSR = CAN_MSR_ERRI;
1384   2              break;
1385   2      
1386   2          case CAN_IT_LEC:
1387   2              CAN->PSR = CAN_Page_Config;
1388   2              CAN->Page.Config.ESR = (uint8_t)CAN_ESR_RESET_VALUE;
1389   2              break;
1390   2      
1391   2      
1392   2      
1393   2          default :
1394   2              break;
1395   2          }
1396   1          /*Restore Last Page*/
1397   1          CAN_SelectPage(can_page);
1398   1      }
1399          
1400          /**
1401            * @brief  Gets the selected registers page.
1402            * @param  None
1403            * @retval the selected page which can be one of the @ref CAN_Page_TypeDef.
1404            */
1405          CAN_Page_TypeDef CAN_GetSelectedPage(void)
1406          {
1407   1          return (CAN_Page_TypeDef)(CAN->PSR);
1408   1      }
1409          
1410          /**
1411            * @brief  Sets the registers page to be selected.
1412            * @param   the selected page which can be one of the @ref CAN_Page_TypeDef.
1413            * @retval None
1414            */
1415          void CAN_SelectPage(CAN_Page_TypeDef CAN_Page)
1416          {
1417   1          CAN->PSR = (uint8_t)CAN_Page;
1418   1      }
1419          
1420          /**
1421            * @brief  Checks whether the CAN interrupt has occurred or not.
1422            * @param   CAN_Reg: specifies the CAN interrupt register to check.
1423            * @param   It_Bit: specifies the interrupt source bit to check.
1424            * @retval The new state of the CAN Interrupt, which can be one of ITStatus.
1425            */
1426          static ITStatus CheckITStatus(uint8_t CAN_Reg, uint8_t It_Bit)
1427          {
1428   1          ITStatus pendingbitstatus = RESET;
1429   1          if ((CAN_Reg & It_Bit) != (uint8_t)RESET)
1430   1          {
1431   2              /* CAN_IT is set */
1432   2              pendingbitstatus = SET;
1433   2          }
1434   1          else
1435   1          {
1436   2              /* CAN_IT is reset */
1437   2              pendingbitstatus = RESET;
1438   2          }
1439   1          return (ITStatus)pendingbitstatus;
1440   1      }
1441          /******************* (C) COPYRIGHT 2011 STMicroelectronics *****END OF FILE****/
1442          
RCSTM8 COMPILER V2.44.12.199
ASSEMBLY LISTING OF GENERATED OBJECT CODE

              ; FUNCTION ?CAN_DeInit (BEGIN)
              ; SOURCE LINE # 59 
0000 35015420                          MOV    05420H,#001H
              ; SOURCE LINE # 60 
0004 35065427                          MOV    05427H,#006H
              ; SOURCE LINE # 61 
0008 5F                                CLRW   X
0009 CD0000     F                      CALL   ?CAN_OperatingModeRequest
              ; SOURCE LINE # 62 
000C 725F5428                          CLR    05428H
              ; SOURCE LINE # 63 
0010 725F5429                          CLR    05429H
              ; SOURCE LINE # 64 
0014 3540542C                          MOV    0542CH,#040H
              ; SOURCE LINE # 65 
0018 3523542D                          MOV    0542DH,#023H
              ; SOURCE LINE # 66 
001C 725F5430                          CLR    05430H
              ; SOURCE LINE # 67 
0020 725F5431                          CLR    05431H
              ; SOURCE LINE # 68 
0024 725F5432                          CLR    05432H
              ; SOURCE LINE # 69 
0028 725F5433                          CLR    05433H
              ; SOURCE LINE # 70 
002C 725F5434                          CLR    05434H
              ; SOURCE LINE # 71 
0030 5F                                CLRW   X
0031 5C                                INCW   X
0032 CD0000     F                      CALL   ?CAN_OperatingModeRequest
              ; SOURCE LINE # 72 
0035 35075427                          MOV    05427H,#007H
              ; SOURCE LINE # 73 
0039 725F5429                          CLR    05429H
              ; SOURCE LINE # 74 
003D 725F5427                          CLR    05427H
              ; SOURCE LINE # 75 
0041 725F5429                          CLR    05429H
              ; SOURCE LINE # 76 
0045 35015427                          MOV    05427H,#001H
              ; SOURCE LINE # 77 
0049 725F5429                          CLR    05429H
              ; SOURCE LINE # 78 
004D 35055427                          MOV    05427H,#005H
              ; SOURCE LINE # 79 
0051 725F5429                          CLR    05429H
              ; SOURCE LINE # 81 
0055 35025420                          MOV    05420H,#002H
              ; SOURCE LINE # 82 
0059 35FD5421                          MOV    05421H,#0FDH
              ; SOURCE LINE # 83 
005D 35FF5422                          MOV    05422H,#0FFH
              ; SOURCE LINE # 84 
0061 35FF5424                          MOV    05424H,#0FFH
              ; SOURCE LINE # 85 
0065 725F5425                          CLR    05425H
              ; SOURCE LINE # 86 
0069 350C5426                          MOV    05426H,#00CH
              ; SOURCE LINE # 87 
006D 725F5427                          CLR    05427H
              ; SOURCE LINE # 88 
0071 81                                RET    

              ; FUNCTION ?CAN_DeInit (END)

              ; FUNCTION ?CAN_Init (BEGIN)
              ; Register-parameter CAN_MasterCtrl (XW) is relocated (AUTO)
              ; SOURCE LINE # 100 
0000 89                                PUSHW  X
0001 5206                              SUB    SP,#006H
              ; SOURCE LINE # 108 
0003 5F                                CLRW   X
0004 5A                                DECW   X
0005 1F03       F                      LDW    (003H,SP),X   ; [ timeout ]
              ; SOURCE LINE # 109 
0007 CD0000     F                      CALL   ?CAN_GetSelectedPage
000A 1F05       F                      LDW    (005H,SP),X   ; [ can_page ]
              ; SOURCE LINE # 113 
000C 1E07       F                      LDW    X,(007H,SP)   ; [ CAN_MasterCtrl ]
000E 2716                              JREQ   ?NXT_0010
0010 A300FC                            CPW    X,#000FCH
0013 2C05                              JRSGT  ?ELSE_0008
0015 A30004                            CPW    X,#00004H
0018 2E0C                              JRSGE  ?NXT_0010
001A         ?ELSE_0008:
001A CD0000     F DNF            M(04)  CALL  ?C?mv4_pg2sk1
001D         ?DATASTART_0006:
001D 71                             M  DB     071H
001E         ?DATAEND_0006:
001E AE0000     F                      LDW    X,#HIGH(?STR?STM8S_CAN?BASE)
0021 CD0000     F                      CALL   ?assert_failed
0024 5B04                              ADD    SP,#004H
0026         ?NXT_0010:
              ; SOURCE LINE # 114 
0026 1E0B       F                      LDW    X,(00BH,SP)   ; [ CAN_Mode ]
0028 271B                              JREQ   ?NXT_0011
002A 5A                                DECW   X
002B 2718                              JREQ   ?NXT_0011
002D AE0002                            LDW    X,#00002H
0030 130B       F                      CPW    X,(00BH,SP)   ; [ CAN_Mode ]
0032 2711                              JREQ   ?NXT_0011
0034 5C                                INCW   X
0035 130B       F                      CPW    X,(00BH,SP)   ; [ CAN_Mode ]
0037 270C                              JREQ   ?NXT_0011
0039 CD0000     F DNF            M(04)  CALL  ?C?mv4_pg2sk1
003C         ?DATASTART_0007:
003C 72                             M  DB     072H
003D         ?DATAEND_0007:
003D AE0000     F                      LDW    X,#HIGH(?STR?STM8S_CAN?BASE)
0040 CD0000     F                      CALL   ?assert_failed
0043 5B04                              ADD    SP,#004H
0045         ?NXT_0011:
              ; SOURCE LINE # 115 
0045 1E0D       F                      LDW    X,(00DH,SP)   ; [ CAN_SynJumpWidth ]
0047 271B                              JREQ   ?NXT_0012
0049 A30040                            CPW    X,#00040H
004C 2716                              JREQ   ?NXT_0012
004E A30080                            CPW    X,#00080H
0051 2711                              JREQ   ?NXT_0012
0053 A300C0                            CPW    X,#000C0H
0056 270C                              JREQ   ?NXT_0012
0058 CD0000     F DNF            M(04)  CALL  ?C?mv4_pg2sk1
005B         ?DATASTART_0008:
005B 73                             M  DB     073H
005C         ?DATAEND_0008:
005C AE0000     F                      LDW    X,#HIGH(?STR?STM8S_CAN?BASE)
005F CD0000     F                      CALL   ?assert_failed
0062 5B04                              ADD    SP,#004H
0064         ?NXT_0012:
              ; SOURCE LINE # 116 
0064 AE000F                            LDW    X,#0000FH
0067 130F       F                      CPW    X,(00FH,SP)   ; [ CAN_BitSeg1 ]
0069 2E0C                              JRSGE  ?NXT_0013
006B CD0000     F DNF            M(04)  CALL  ?C?mv4_pg2sk1
006E         ?DATASTART_0009:
006E 74                             M  DB     074H
006F         ?DATAEND_0009:
006F AE0000     F                      LDW    X,#HIGH(?STR?STM8S_CAN?BASE)
0072 CD0000     F                      CALL   ?assert_failed
0075 5B04                              ADD    SP,#004H
0077         ?NXT_0013:
              ; SOURCE LINE # 117 
0077 AE0010                            LDW    X,#00010H
007A 1311       F                      CPW    X,(011H,SP)   ; [ CAN_BitSeg2 ]
007C 2C07                              JRSGT  ?LAB_0022
007E AE0070                            LDW    X,#00070H
0081 1311       F                      CPW    X,(011H,SP)   ; [ CAN_BitSeg2 ]
0083 2E10                              JRSGE  ?NXT_0014
0085         ?LAB_0022:
0085 1E11       F                      LDW    X,(011H,SP)   ; [ CAN_BitSeg2 ]
0087 270C                              JREQ   ?NXT_0014
0089 CD0000     F DNF            M(04)  CALL  ?C?mv4_pg2sk1
008C         ?DATASTART_0010:
008C 75                             M  DB     075H
008D         ?DATAEND_0010:
008D AE0000     F                      LDW    X,#HIGH(?STR?STM8S_CAN?BASE)
0090 CD0000     F                      CALL   ?assert_failed
0093 5B04                              ADD    SP,#004H
0095         ?NXT_0014:
              ; SOURCE LINE # 118 
0095 7B13       F                      LD     A,(013H,SP)   ; [ CAN_Prescaler ]
0097 A101                              CP     A,#001H
0099 2F04                              JRSLT  ?ELSE_0013
009B A140                              CP     A,#040H
009D 2D0C                              JRSLE  ?NXT_0015
009F         ?ELSE_0013:
009F CD0000     F DNF            M(04)  CALL  ?C?mv4_pg2sk1
00A2         ?DATASTART_0011:
00A2 76                             M  DB     076H
00A3         ?DATAEND_0011:
00A3 AE0000     F                      LDW    X,#HIGH(?STR?STM8S_CAN?BASE)
00A6 CD0000     F                      CALL   ?assert_failed
00A9 5B04                              ADD    SP,#004H
00AB         ?NXT_0015:
              ; SOURCE LINE # 121 
00AB 35015420                          MOV    05420H,#001H
00AF         ?WHILE_0002:
              ; SOURCE LINE # 123 
00AF C65421                            LD     A,05421H
00B2 A401                              AND    A,#001H
00B4 4A                                DEC    A
00B5 2709                              JREQ   ?NXT_0016
00B7 1E03       F                      LDW    X,(003H,SP)   ; [ timeout ]
00B9 2705                              JREQ   ?NXT_0016
              ; SOURCE LINE # 125 
00BB 5A                                DECW   X
00BC 1F03       F                      LDW    (003H,SP),X   ; [ timeout ]
00BE 20EF                              JRA    ?WHILE_0002
00C0         ?NXT_0016:
              ; SOURCE LINE # 129 
00C0 7200542105                        BTJT   05421H,#000H,?ELSE_0014
              ; SOURCE LINE # 132 
00C5 5F                                CLRW   X
00C6 1F01       F                      LDW    (001H,SP),X   ; [ InitStatus ]
00C8 2044                              JRA    ?NXT_0017
00CA         ?ELSE_0014:
              ; SOURCE LINE # 139 
00CA C65420                            LD     A,05420H
00CD 1A08       F                      OR     A,(008H,SP)   ; [ CAN_MasterCtrl + 01H ]
00CF C75420                            LD     05420H,A
              ; SOURCE LINE # 142 
00D2 C65426                            LD     A,05426H
00D5 1A0C       F                      OR     A,(00CH,SP)   ; [ CAN_Mode + 01H ]
00D7 C75426                            LD     05426H,A
              ; SOURCE LINE # 143 
00DA 35065427                          MOV    05427H,#006H
              ; SOURCE LINE # 144 
00DE 7B13       F                      LD     A,(013H,SP)   ; [ CAN_Prescaler ]
00E0 4A                                DEC    A
00E1 1A0E       F                      OR     A,(00EH,SP)   ; [ CAN_SynJumpWidth + 01H ]
00E3 C7542C                            LD     0542CH,A
              ; SOURCE LINE # 145 
00E6 7B12       F                      LD     A,(012H,SP)   ; [ CAN_BitSeg2 + 01H ]
00E8 1A10       F                      OR     A,(010H,SP)   ; [ CAN_BitSeg1 + 01H ]
00EA C7542D                            LD     0542DH,A
              ; SOURCE LINE # 148 
00ED 72115420                          BRES   05420H,#000H
              ; SOURCE LINE # 150 
00F1 5F                                CLRW   X
00F2         ?WHILE_0003:
              ; SOURCE LINE # 151 
00F2 5A                                DECW   X
00F3 1F03       F                      LDW    (003H,SP),X   ; [ timeout ]
00F5 C65421                            LD     A,05421H
00F8 A401                              AND    A,#001H
00FA 4A                                DEC    A
00FB 2603                              JRNE   ?NXT_0018
00FD 5D                                TNZW   X
              ; SOURCE LINE # 153 
00FE 26F2                              JRNE   ?WHILE_0003
0100         ?NXT_0018:
              ; SOURCE LINE # 156 
0100 7201542105                        BTJF   05421H,#000H,?ELSE_0015
              ; SOURCE LINE # 158 
0105 5F                                CLRW   X
0106 1F01       F                      LDW    (001H,SP),X   ; [ InitStatus ]
0108 2004                              JRA    ?NXT_0017
010A         ?ELSE_0015:
              ; SOURCE LINE # 162 
010A 5F                                CLRW   X
010B 5C                                INCW   X
010C 1F01       F                      LDW    (001H,SP),X   ; [ InitStatus ]
010E         ?NXT_0017:
              ; SOURCE LINE # 166 
010E 1E05       F                      LDW    X,(005H,SP)   ; [ can_page ]
0110 CD0000     F                      CALL   ?CAN_SelectPage
              ; SOURCE LINE # 169 
0113 1E01       F                      LDW    X,(001H,SP)   ; [ InitStatus ]
              ; SOURCE LINE # 170 
0115 5B08                              ADD    SP,#008H
0117 81                                RET    
              ; CAN_MasterCtrl (size=2).  parameter in AUTO
              ; CAN_Mode     (size=2).  parameter in AUTO
              ; CAN_SynJumpWidth (size=2).  parameter in AUTO
              ; CAN_BitSeg1  (size=2).  parameter in AUTO
              ; CAN_BitSeg2  (size=2).  parameter in AUTO
              ; CAN_Prescaler unsigned char  (size=1).  parameter in AUTO
              ; InitStatus   (size=2). Automatic variable  in AUTO
              ; timeout      unsigned short  (size=2-Alg). Automatic variable  in AUTO
              ; can_page     (size=2). Automatic variable  in AUTO

              ; FUNCTION ?CAN_Init (END)

              ; FUNCTION ?CAN_FilterInit (BEGIN)
              ; Register-parameter CAN_FilterNumber (XW) is relocated (AUTO)
              ; SOURCE LINE # 188 
0000 89                                PUSHW  X
0001 5213                              SUB    SP,#013H
              ; SOURCE LINE # 206 
0003 CD0000     F                      CALL   ?CAN_GetSelectedPage
0006 1F06       F                      LDW    (006H,SP),X   ; [ can_page ]
              ; SOURCE LINE # 209 
0008 1E14       F                      LDW    X,(014H,SP)   ; [ CAN_FilterNumber ]
000A 2725                              JREQ   ?NXT_0051
000C 5A                                DECW   X
000D 2722                              JREQ   ?NXT_0051
000F AE0002                            LDW    X,#00002H
0012 1314       F                      CPW    X,(014H,SP)   ; [ CAN_FilterNumber ]
0014 271B                              JREQ   ?NXT_0051
0016 5C                                INCW   X
0017 1314       F                      CPW    X,(014H,SP)   ; [ CAN_FilterNumber ]
0019 2716                              JREQ   ?NXT_0051
001B 5C                                INCW   X
001C 1314       F                      CPW    X,(014H,SP)   ; [ CAN_FilterNumber ]
001E 2711                              JREQ   ?NXT_0051
0020 5C                                INCW   X
0021 1314       F                      CPW    X,(014H,SP)   ; [ CAN_FilterNumber ]
0023 270C                              JREQ   ?NXT_0051
0025 CD0000     F DNF            M(04)  CALL  ?C?mv4_pg2sk1
0028         ?DATASTART_0016:
0028 D1                             M  DB     0D1H
0029         ?DATAEND_0016:
0029 AE0000     F                      LDW    X,#HIGH(?STR?STM8S_CAN?BASE)
002C CD0000     F                      CALL   ?assert_failed
002F 5B04                              ADD    SP,#004H
0031         ?NXT_0051:
              ; SOURCE LINE # 210 
0031 1E18       F                      LDW    X,(018H,SP)   ; [ CAN_FilterActivation ]
0033 270F                              JREQ   ?NXT_0052
0035 5A                                DECW   X
0036 270C                              JREQ   ?NXT_0052
0038 CD0000     F DNF            M(04)  CALL  ?C?mv4_pg2sk1
003B         ?DATASTART_0017:
003B D2                             M  DB     0D2H
003C         ?DATAEND_0017:
003C AE0000     F                      LDW    X,#HIGH(?STR?STM8S_CAN?BASE)
003F CD0000     F                      CALL   ?assert_failed
0042 5B04                              ADD    SP,#004H
0044         ?NXT_0052:
              ; SOURCE LINE # 211 
0044 1E1A       F                      LDW    X,(01AH,SP)   ; [ CAN_FilterMode ]
0046 2719                              JREQ   ?NXT_0053
0048 A30010                            CPW    X,#00010H
004B 2714                              JREQ   ?NXT_0053
004D A30011                            CPW    X,#00011H
0050 270F                              JREQ   ?NXT_0053
0052 5A                                DECW   X
0053 270C                              JREQ   ?NXT_0053
0055 CD0000     F DNF            M(04)  CALL  ?C?mv4_pg2sk1
0058         ?DATASTART_0018:
0058 D3                             M  DB     0D3H
0059         ?DATAEND_0018:
0059 AE0000     F                      LDW    X,#HIGH(?STR?STM8S_CAN?BASE)
005C CD0000     F                      CALL   ?assert_failed
005F 5B04                              ADD    SP,#004H
0061         ?NXT_0053:
              ; SOURCE LINE # 212 
0061 1E1C       F                      LDW    X,(01CH,SP)   ; [ CAN_FilterScale ]
0063 271B                              JREQ   ?NXT_0054
0065 A30002                            CPW    X,#00002H
0068 2716                              JREQ   ?NXT_0054
006A A30004                            CPW    X,#00004H
006D 2711                              JREQ   ?NXT_0054
006F A30006                            CPW    X,#00006H
0072 270C                              JREQ   ?NXT_0054
0074 CD0000     F DNF            M(04)  CALL  ?C?mv4_pg2sk1
0077         ?DATASTART_0019:
0077 D4                             M  DB     0D4H
0078         ?DATAEND_0019:
0078 AE0000     F                      LDW    X,#HIGH(?STR?STM8S_CAN?BASE)
007B CD0000     F                      CALL   ?assert_failed
007E 5B04                              ADD    SP,#004H
0080         ?NXT_0054:
              ; SOURCE LINE # 215 
0080 1E14       F                      LDW    X,(014H,SP)   ; [ CAN_FilterNumber ]
0082 2610                              JRNE   ?ELSE_0050
              ; SOURCE LINE # 217 
0084 AE0100                            LDW    X,#00100H
0087 1F01       F                      LDW    (001H,SP),X   ; [ fact ]
              ; SOURCE LINE # 219 
0089 A603                              LD     A,#003H
008B 6B03       F                      LD     (003H,SP),A   ; [ fmhl ]
              ; SOURCE LINE # 221 
008D AE0002                            LDW    X,#00002H
0090 1F04       F                      LDW    (004H,SP),X   ; [ can_page_filter ]
0092 2069                              JRA    ?NXT_0055
0094         ?ELSE_0050:
              ; SOURCE LINE # 223 
0094 5F                                CLRW   X
0095 5C                                INCW   X
0096 1314       F                      CPW    X,(014H,SP)   ; [ CAN_FilterNumber ]
0098 2610                              JRNE   ?ELSE_0051
              ; SOURCE LINE # 225 
009A AE1004                            LDW    X,#01004H
009D 1F01       F                      LDW    (001H,SP),X   ; [ fact ]
              ; SOURCE LINE # 227 
009F A60C                              LD     A,#00CH
00A1 6B03       F                      LD     (003H,SP),A   ; [ fmhl ]
              ; SOURCE LINE # 229 
00A3 AE0002                            LDW    X,#00002H
00A6 1F04       F                      LDW    (004H,SP),X   ; [ can_page_filter ]
00A8 2053                              JRA    ?NXT_0055
00AA         ?ELSE_0051:
              ; SOURCE LINE # 231 
00AA AE0002                            LDW    X,#00002H
00AD 1314       F                      CPW    X,(014H,SP)   ; [ CAN_FilterNumber ]
00AF 2610                              JRNE   ?ELSE_0052
              ; SOURCE LINE # 233 
00B1 AE0100                            LDW    X,#00100H
00B4 1F01       F                      LDW    (001H,SP),X   ; [ fact ]
              ; SOURCE LINE # 235 
00B6 A630                              LD     A,#030H
00B8 6B03       F                      LD     (003H,SP),A   ; [ fmhl ]
              ; SOURCE LINE # 237 
00BA AE0003                            LDW    X,#00003H
00BD 1F04       F                      LDW    (004H,SP),X   ; [ can_page_filter ]
00BF 203C                              JRA    ?NXT_0055
00C1         ?ELSE_0052:
              ; SOURCE LINE # 239 
00C1 AE0003                            LDW    X,#00003H
00C4 1314       F                      CPW    X,(014H,SP)   ; [ CAN_FilterNumber ]
00C6 2610                              JRNE   ?ELSE_0053
              ; SOURCE LINE # 241 
00C8 AE1004                            LDW    X,#01004H
00CB 1F01       F                      LDW    (001H,SP),X   ; [ fact ]
              ; SOURCE LINE # 243 
00CD A6C0                              LD     A,#0C0H
00CF 6B03       F                      LD     (003H,SP),A   ; [ fmhl ]
              ; SOURCE LINE # 245 
00D1 AE0003                            LDW    X,#00003H
00D4 1F04       F                      LDW    (004H,SP),X   ; [ can_page_filter ]
00D6 2025                              JRA    ?NXT_0055
00D8         ?ELSE_0053:
              ; SOURCE LINE # 247 
00D8 AE0004                            LDW    X,#00004H
00DB 1314       F                      CPW    X,(014H,SP)   ; [ CAN_FilterNumber ]
00DD 2610                              JRNE   ?ELSE_0054
              ; SOURCE LINE # 249 
00DF AE0100                            LDW    X,#00100H
00E2 1F01       F                      LDW    (001H,SP),X   ; [ fact ]
              ; SOURCE LINE # 251 
00E4 A603                              LD     A,#003H
00E6 6B03       F                      LD     (003H,SP),A   ; [ fmhl ]
              ; SOURCE LINE # 253 
00E8 AE0004                            LDW    X,#00004H
00EB 1F04       F                      LDW    (004H,SP),X   ; [ can_page_filter ]
00ED 200E                              JRA    ?NXT_0055
00EF         ?ELSE_0054:
              ; SOURCE LINE # 257 
00EF AE1004                            LDW    X,#01004H
00F2 1F01       F                      LDW    (001H,SP),X   ; [ fact ]
              ; SOURCE LINE # 259 
00F4 A60C                              LD     A,#00CH
00F6 6B03       F                      LD     (003H,SP),A   ; [ fmhl ]
              ; SOURCE LINE # 261 
00F8 AE0004                            LDW    X,#00004H
00FB 1F04       F                      LDW    (004H,SP),X   ; [ can_page_filter ]
00FD         ?NXT_0055:
              ; SOURCE LINE # 265 
00FD 5F                                CLRW   X
00FE CD0000     F                      CALL   ?CAN_OperatingModeRequest
              ; SOURCE LINE # 267 
0101 35065427                          MOV    05427H,#006H
              ; SOURCE LINE # 272 
0105 AE0002                            LDW    X,#00002H
0108 1304       F                      CPW    X,(004H,SP)   ; [ can_page_filter ]
010A 2627                              JRNE   ?ELSE_0055
              ; SOURCE LINE # 275 
010C AE0006                            LDW    X,#00006H
010F 7B02       F                      LD     A,(002H,SP)   ; [ fsc ]
0111 CD0000     F                      CALL   ?C?sll168
0114 4F                                CLR    A
0115 95                                LD     XH,A
0116 1F0A       F                      LDW    (00AH,SP),X
0118 7B01       F                      LD     A,(001H,SP)   ; [ fact ]
011A 1A0B       F                      OR     A,(00BH,SP)
011C 43                                CPL    A
011D C45432                            AND    A,05432H
0120 C75432                            LD     05432H,A
              ; SOURCE LINE # 277 
0123 7B02       F                      LD     A,(002H,SP)   ; [ fsc ]
0125 1E1C       F                      LDW    X,(01CH,SP)   ; [ CAN_FilterScale ]
0127 CD0000     F                      CALL   ?C?sll168
012A 9F                                LD     A,XL
012B CA5432                            OR     A,05432H
012E C75432                            LD     05432H,A
0131 204E                              JRA    ?NXT_0060
0133         ?ELSE_0055:
              ; SOURCE LINE # 279 
0133 AE0003                            LDW    X,#00003H
0136 1304       F                      CPW    X,(004H,SP)   ; [ can_page_filter ]
0138 2627                              JRNE   ?ELSE_0056
              ; SOURCE LINE # 282 
013A AE0006                            LDW    X,#00006H
013D 7B02       F                      LD     A,(002H,SP)   ; [ fsc ]
013F CD0000     F                      CALL   ?C?sll168
0142 4F                                CLR    A
0143 95                                LD     XH,A
0144 1F0A       F                      LDW    (00AH,SP),X
0146 7B01       F                      LD     A,(001H,SP)   ; [ fact ]
0148 1A0B       F                      OR     A,(00BH,SP)
014A 43                                CPL    A
014B C45433                            AND    A,05433H
014E C75433                            LD     05433H,A
              ; SOURCE LINE # 285 
0151 7B02       F                      LD     A,(002H,SP)   ; [ fsc ]
0153 1E1C       F                      LDW    X,(01CH,SP)   ; [ CAN_FilterScale ]
0155 CD0000     F                      CALL   ?C?sll168
0158 9F                                LD     A,XL
0159 CA5433                            OR     A,05433H
015C C75433                            LD     05433H,A
015F 2020                              JRA    ?NXT_0060
0161         ?ELSE_0056:
              ; SOURCE LINE # 291 
0161 AE0006                            LDW    X,#00006H
0164 7B02       F                      LD     A,(002H,SP)   ; [ fsc ]
0166 CD0000     F                      CALL   ?C?sll168
0169 9F                                LD     A,XL
016A 1A01       F                      OR     A,(001H,SP)   ; [ fact ]
016C 43                                CPL    A
016D C45434                            AND    A,05434H
0170 C75434                            LD     05434H,A
              ; SOURCE LINE # 294 
0173 7B02       F                      LD     A,(002H,SP)   ; [ fsc ]
0175 1E1C       F                      LDW    X,(01CH,SP)   ; [ CAN_FilterScale ]
0177 CD0000     F                      CALL   ?C?sll168
017A 9F                                LD     A,XL
017B CA5434                            OR     A,05434H
017E C75434                            LD     05434H,A
0181         ?NXT_0060:
              ; SOURCE LINE # 300 
0181 AE0004                            LDW    X,#00004H
0184 1304       F                      CPW    X,(004H,SP)   ; [ can_page_filter ]
0186 273C                              JREQ   ?ELSE_0057
              ; SOURCE LINE # 303 
0188 1E1A       F                      LDW    X,(01AH,SP)   ; [ CAN_FilterMode ]
018A 260B                              JRNE   ?ELSE_0058
              ; SOURCE LINE # 306 
018C 7B03       F                      LD     A,(003H,SP)   ; [ fmhl ]
018E 43                                CPL    A
018F C45430                            AND    A,05430H
0192 C75430                            LD     05430H,A
0195 2067                              JRA    ?NXT_0062
0197         ?ELSE_0058:
              ; SOURCE LINE # 308 
0197 5F                                CLRW   X
0198 5C                                INCW   X
0199 131A       F                      CPW    X,(01AH,SP)   ; [ CAN_FilterMode ]
019B 260A                              JRNE   ?ELSE_0059
              ; SOURCE LINE # 311 
019D C65430                            LD     A,05430H
01A0 1A03       F                      OR     A,(003H,SP)   ; [ fmhl ]
01A2 C75430                            LD     05430H,A
01A5 2057                              JRA    ?NXT_0062
01A7         ?ELSE_0059:
              ; SOURCE LINE # 313 
01A7 AE0011                            LDW    X,#00011H
01AA 7B03       F                      LD     A,(003H,SP)   ; [ fmhl ]
01AC 131A       F                      CPW    X,(01AH,SP)   ; [ CAN_FilterMode ]
01AE 260A                              JRNE   ?ELSE_0060
              ; SOURCE LINE # 316 
01B0 A455                              AND    A,#055H
01B2 CA5430                            OR     A,05430H
01B5 C75430                            LD     05430H,A
01B8 2044                              JRA    ?NXT_0062
01BA         ?ELSE_0060:
              ; SOURCE LINE # 321 
01BA A4AA                              AND    A,#0AAH
01BC CA5430                            OR     A,05430H
01BF C75430                            LD     05430H,A
01C2 203A                              JRA    ?NXT_0062
01C4         ?ELSE_0057:
              ; SOURCE LINE # 330 
01C4 1E1A       F                      LDW    X,(01AH,SP)   ; [ CAN_FilterMode ]
01C6 260B                              JRNE   ?ELSE_0061
              ; SOURCE LINE # 333 
01C8 7B03       F                      LD     A,(003H,SP)   ; [ fmhl ]
01CA 43                                CPL    A
01CB C45431                            AND    A,05431H
01CE C75431                            LD     05431H,A
01D1 202B                              JRA    ?NXT_0062
01D3         ?ELSE_0061:
              ; SOURCE LINE # 335 
01D3 5F                                CLRW   X
01D4 5C                                INCW   X
01D5 131A       F                      CPW    X,(01AH,SP)   ; [ CAN_FilterMode ]
01D7 260A                              JRNE   ?ELSE_0062
              ; SOURCE LINE # 338 
01D9 C65431                            LD     A,05431H
01DC 1A03       F                      OR     A,(003H,SP)   ; [ fmhl ]
01DE C75431                            LD     05431H,A
01E1 201B                              JRA    ?NXT_0062
01E3         ?ELSE_0062:
              ; SOURCE LINE # 340 
01E3 AE0011                            LDW    X,#00011H
01E6 7B03       F                      LD     A,(003H,SP)   ; [ fmhl ]
01E8 131A       F                      CPW    X,(01AH,SP)   ; [ CAN_FilterMode ]
01EA 260A                              JRNE   ?ELSE_0063
              ; SOURCE LINE # 343 
01EC A455                              AND    A,#055H
01EE CA5431                            OR     A,05431H
01F1 C75431                            LD     05431H,A
01F4 2008                              JRA    ?NXT_0062
01F6         ?ELSE_0063:
              ; SOURCE LINE # 348 
01F6 A4AA                              AND    A,#0AAH
01F8 CA5431                            OR     A,05431H
01FB C75431                            LD     05431H,A
01FE         ?NXT_0062:
              ; SOURCE LINE # 354 
01FE 7B05       F                      LD     A,(005H,SP)   ; [ can_page_filter + 01H ]
0200 C75427                            LD     05427H,A
              ; SOURCE LINE # 355 
0203 0D02       F                      TNZ    (002H,SP)   ; [ fsc ]
0205 2603                              JRNE   ?LAB_0050
0207 CC0000     F                      JP     ?ELSE_0064
020A         ?LAB_0050:
              ; SOURCE LINE # 358 
020A 1E1C       F                      LDW    X,(01CH,SP)   ; [ CAN_FilterScale ]
020C 262B                              JRNE   ?ELSE_0065
              ; SOURCE LINE # 360 
020E 7B1E       F                      LD     A,(01EH,SP)   ; [ CAN_FilterID1 ]
0210 C75430                            LD     05430H,A
              ; SOURCE LINE # 361 
0213 7B22       F                      LD     A,(022H,SP)   ; [ CAN_FilterIDMask1 ]
0215 C75431                            LD     05431H,A
              ; SOURCE LINE # 362 
0218 7B1F       F                      LD     A,(01FH,SP)   ; [ CAN_FilterID2 ]
021A C75432                            LD     05432H,A
              ; SOURCE LINE # 363 
021D 7B23       F                      LD     A,(023H,SP)   ; [ CAN_FilterIDMask2 ]
021F C75433                            LD     05433H,A
              ; SOURCE LINE # 364 
0222 7B20       F                      LD     A,(020H,SP)   ; [ CAN_FilterID3 ]
0224 C75434                            LD     05434H,A
              ; SOURCE LINE # 365 
0227 7B24       F                      LD     A,(024H,SP)   ; [ CAN_FilterIDMask3 ]
0229 C75435                            LD     05435H,A
              ; SOURCE LINE # 366 
022C 7B21       F                      LD     A,(021H,SP)   ; [ CAN_FilterID4 ]
022E C75436                            LD     05436H,A
              ; SOURCE LINE # 367 
0231 7B25       F                      LD     A,(025H,SP)   ; [ CAN_FilterIDMask4 ]
0233 C75437                            LD     05437H,A
0236 CC0000     F                      JP     ?NXT_0069
0239         ?ELSE_0065:
              ; SOURCE LINE # 369 
0239 AE0002                            LDW    X,#00002H
023C 131C       F                      CPW    X,(01CH,SP)   ; [ CAN_FilterScale ]
023E 262B                              JRNE   ?ELSE_0066
              ; SOURCE LINE # 371 
0240 7B1E       F                      LD     A,(01EH,SP)   ; [ CAN_FilterID1 ]
0242 C75430                            LD     05430H,A
              ; SOURCE LINE # 372 
0245 7B1F       F                      LD     A,(01FH,SP)   ; [ CAN_FilterID2 ]
0247 C75431                            LD     05431H,A
              ; SOURCE LINE # 373 
024A 7B22       F                      LD     A,(022H,SP)   ; [ CAN_FilterIDMask1 ]
024C C75432                            LD     05432H,A
              ; SOURCE LINE # 374 
024F 7B23       F                      LD     A,(023H,SP)   ; [ CAN_FilterIDMask2 ]
0251 C75433                            LD     05433H,A
              ; SOURCE LINE # 375 
0254 7B20       F                      LD     A,(020H,SP)   ; [ CAN_FilterID3 ]
0256 C75434                            LD     05434H,A
              ; SOURCE LINE # 376 
0259 7B24       F                      LD     A,(024H,SP)   ; [ CAN_FilterIDMask3 ]
025B C75435                            LD     05435H,A
              ; SOURCE LINE # 377 
025E 7B21       F                      LD     A,(021H,SP)   ; [ CAN_FilterID4 ]
0260 C75436                            LD     05436H,A
              ; SOURCE LINE # 378 
0263 7B25       F                      LD     A,(025H,SP)   ; [ CAN_FilterIDMask4 ]
0265 C75437                            LD     05437H,A
0268 CC0000     F                      JP     ?NXT_0069
026B         ?ELSE_0066:
              ; SOURCE LINE # 380 
026B AE0004                            LDW    X,#00004H
026E 131C       F                      CPW    X,(01CH,SP)   ; [ CAN_FilterScale ]
0270 262B                              JRNE   ?ELSE_0067
              ; SOURCE LINE # 382 
0272 7B1E       F                      LD     A,(01EH,SP)   ; [ CAN_FilterID1 ]
0274 C75430                            LD     05430H,A
              ; SOURCE LINE # 383 
0277 7B1F       F                      LD     A,(01FH,SP)   ; [ CAN_FilterID2 ]
0279 C75431                            LD     05431H,A
              ; SOURCE LINE # 384 
027C 7B22       F                      LD     A,(022H,SP)   ; [ CAN_FilterIDMask1 ]
027E C75432                            LD     05432H,A
              ; SOURCE LINE # 385 
0281 7B23       F                      LD     A,(023H,SP)   ; [ CAN_FilterIDMask2 ]
0283 C75433                            LD     05433H,A
              ; SOURCE LINE # 386 
0286 7B20       F                      LD     A,(020H,SP)   ; [ CAN_FilterID3 ]
0288 C75434                            LD     05434H,A
              ; SOURCE LINE # 387 
028B 7B21       F                      LD     A,(021H,SP)   ; [ CAN_FilterID4 ]
028D C75435                            LD     05435H,A
              ; SOURCE LINE # 388 
0290 7B24       F                      LD     A,(024H,SP)   ; [ CAN_FilterIDMask3 ]
0292 C75436                            LD     05436H,A
              ; SOURCE LINE # 389 
0295 7B25       F                      LD     A,(025H,SP)   ; [ CAN_FilterIDMask4 ]
0297 C75437                            LD     05437H,A
029A CC0000     F                      JP     ?NXT_0069
029D         ?ELSE_0067:
              ; SOURCE LINE # 391 
029D AE0006                            LDW    X,#00006H
02A0 131C       F                      CPW    X,(01CH,SP)   ; [ CAN_FilterScale ]
02A2 2703                              JREQ   ?LAB_0051
02A4 CC0000     F                      JP     ?NXT_0069
02A7         ?LAB_0051:
              ; SOURCE LINE # 393 
02A7 7B1E       F                      LD     A,(01EH,SP)   ; [ CAN_FilterID1 ]
02A9 C75430                            LD     05430H,A
              ; SOURCE LINE # 394 
02AC 7B1F       F                      LD     A,(01FH,SP)   ; [ CAN_FilterID2 ]
02AE C75431                            LD     05431H,A
              ; SOURCE LINE # 395 
02B1 7B20       F                      LD     A,(020H,SP)   ; [ CAN_FilterID3 ]
02B3 C75432                            LD     05432H,A
              ; SOURCE LINE # 396 
02B6 7B21       F                      LD     A,(021H,SP)   ; [ CAN_FilterID4 ]
02B8 C75433                            LD     05433H,A
              ; SOURCE LINE # 397 
02BB 7B22       F                      LD     A,(022H,SP)   ; [ CAN_FilterIDMask1 ]
02BD C75434                            LD     05434H,A
              ; SOURCE LINE # 398 
02C0 7B23       F                      LD     A,(023H,SP)   ; [ CAN_FilterIDMask2 ]
02C2 C75435                            LD     05435H,A
              ; SOURCE LINE # 399 
02C5 7B24       F                      LD     A,(024H,SP)   ; [ CAN_FilterIDMask3 ]
02C7 C75436                            LD     05436H,A
              ; SOURCE LINE # 400 
02CA 7B25       F                      LD     A,(025H,SP)   ; [ CAN_FilterIDMask4 ]
02CC C75437                            LD     05437H,A
02CF CC0000     F                      JP     ?NXT_0069
02D2         ?ELSE_0064:
              ; SOURCE LINE # 406 
02D2 1E1C       F                      LDW    X,(01CH,SP)   ; [ CAN_FilterScale ]
02D4 262B                              JRNE   ?ELSE_0069
              ; SOURCE LINE # 408 
02D6 7B1E       F                      LD     A,(01EH,SP)   ; [ CAN_FilterID1 ]
02D8 C75428                            LD     05428H,A
              ; SOURCE LINE # 409 
02DB 7B22       F                      LD     A,(022H,SP)   ; [ CAN_FilterIDMask1 ]
02DD C75429                            LD     05429H,A
              ; SOURCE LINE # 410 
02E0 7B1F       F                      LD     A,(01FH,SP)   ; [ CAN_FilterID2 ]
02E2 C7542A                            LD     0542AH,A
              ; SOURCE LINE # 411 
02E5 7B23       F                      LD     A,(023H,SP)   ; [ CAN_FilterIDMask2 ]
02E7 C7542B                            LD     0542BH,A
              ; SOURCE LINE # 412 
02EA 7B20       F                      LD     A,(020H,SP)   ; [ CAN_FilterID3 ]
02EC C7542C                            LD     0542CH,A
              ; SOURCE LINE # 413 
02EF 7B24       F                      LD     A,(024H,SP)   ; [ CAN_FilterIDMask3 ]
02F1 C7542D                            LD     0542DH,A
              ; SOURCE LINE # 414 
02F4 7B21       F                      LD     A,(021H,SP)   ; [ CAN_FilterID4 ]
02F6 C7542E                            LD     0542EH,A
              ; SOURCE LINE # 415 
02F9 7B25       F                      LD     A,(025H,SP)   ; [ CAN_FilterIDMask4 ]
02FB C7542F                            LD     0542FH,A
02FE CC0000     F                      JP     ?NXT_0069
0301         ?ELSE_0069:
              ; SOURCE LINE # 417 
0301 AE0002                            LDW    X,#00002H
0304 131C       F                      CPW    X,(01CH,SP)   ; [ CAN_FilterScale ]
0306 262A                              JRNE   ?ELSE_0070
              ; SOURCE LINE # 419 
0308 7B1E       F                      LD     A,(01EH,SP)   ; [ CAN_FilterID1 ]
030A C75428                            LD     05428H,A
              ; SOURCE LINE # 420 
030D 7B1F       F                      LD     A,(01FH,SP)   ; [ CAN_FilterID2 ]
030F C75429                            LD     05429H,A
              ; SOURCE LINE # 421 
0312 7B22       F                      LD     A,(022H,SP)   ; [ CAN_FilterIDMask1 ]
0314 C7542A                            LD     0542AH,A
              ; SOURCE LINE # 422 
0317 7B23       F                      LD     A,(023H,SP)   ; [ CAN_FilterIDMask2 ]
0319 C7542B                            LD     0542BH,A
              ; SOURCE LINE # 423 
031C 7B20       F                      LD     A,(020H,SP)   ; [ CAN_FilterID3 ]
031E C7542C                            LD     0542CH,A
              ; SOURCE LINE # 424 
0321 7B24       F                      LD     A,(024H,SP)   ; [ CAN_FilterIDMask3 ]
0323 C7542D                            LD     0542DH,A
              ; SOURCE LINE # 425 
0326 7B21       F                      LD     A,(021H,SP)   ; [ CAN_FilterID4 ]
0328 C7542E                            LD     0542EH,A
              ; SOURCE LINE # 426 
032B 7B25       F                      LD     A,(025H,SP)   ; [ CAN_FilterIDMask4 ]
032D C7542F                            LD     0542FH,A
0330 2060                              JRA    ?NXT_0069
0332         ?ELSE_0070:
              ; SOURCE LINE # 428 
0332 AE0004                            LDW    X,#00004H
0335 131C       F                      CPW    X,(01CH,SP)   ; [ CAN_FilterScale ]
0337 262A                              JRNE   ?ELSE_0071
              ; SOURCE LINE # 430 
0339 7B1E       F                      LD     A,(01EH,SP)   ; [ CAN_FilterID1 ]
033B C75428                            LD     05428H,A
              ; SOURCE LINE # 431 
033E 7B1F       F                      LD     A,(01FH,SP)   ; [ CAN_FilterID2 ]
0340 C75429                            LD     05429H,A
              ; SOURCE LINE # 432 
0343 7B22       F                      LD     A,(022H,SP)   ; [ CAN_FilterIDMask1 ]
0345 C7542A                            LD     0542AH,A
              ; SOURCE LINE # 433 
0348 7B23       F                      LD     A,(023H,SP)   ; [ CAN_FilterIDMask2 ]
034A C7542B                            LD     0542BH,A
              ; SOURCE LINE # 434 
034D 7B20       F                      LD     A,(020H,SP)   ; [ CAN_FilterID3 ]
034F C7542C                            LD     0542CH,A
              ; SOURCE LINE # 435 
0352 7B21       F                      LD     A,(021H,SP)   ; [ CAN_FilterID4 ]
0354 C7542D                            LD     0542DH,A
              ; SOURCE LINE # 436 
0357 7B24       F                      LD     A,(024H,SP)   ; [ CAN_FilterIDMask3 ]
0359 C7542E                            LD     0542EH,A
              ; SOURCE LINE # 437 
035C 7B25       F                      LD     A,(025H,SP)   ; [ CAN_FilterIDMask4 ]
035E C7542F                            LD     0542FH,A
0361 202F                              JRA    ?NXT_0069
0363         ?ELSE_0071:
              ; SOURCE LINE # 439 
0363 AE0006                            LDW    X,#00006H
0366 131C       F                      CPW    X,(01CH,SP)   ; [ CAN_FilterScale ]
0368 2628                              JRNE   ?NXT_0069
              ; SOURCE LINE # 441 
036A 7B1E       F                      LD     A,(01EH,SP)   ; [ CAN_FilterID1 ]
036C C75428                            LD     05428H,A
              ; SOURCE LINE # 442 
036F 7B1F       F                      LD     A,(01FH,SP)   ; [ CAN_FilterID2 ]
0371 C75429                            LD     05429H,A
              ; SOURCE LINE # 443 
0374 7B20       F                      LD     A,(020H,SP)   ; [ CAN_FilterID3 ]
0376 C7542A                            LD     0542AH,A
              ; SOURCE LINE # 444 
0379 7B21       F                      LD     A,(021H,SP)   ; [ CAN_FilterID4 ]
037B C7542B                            LD     0542BH,A
              ; SOURCE LINE # 445 
037E 7B22       F                      LD     A,(022H,SP)   ; [ CAN_FilterIDMask1 ]
0380 C7542C                            LD     0542CH,A
              ; SOURCE LINE # 446 
0383 7B23       F                      LD     A,(023H,SP)   ; [ CAN_FilterIDMask2 ]
0385 C7542D                            LD     0542DH,A
              ; SOURCE LINE # 447 
0388 7B24       F                      LD     A,(024H,SP)   ; [ CAN_FilterIDMask3 ]
038A C7542E                            LD     0542EH,A
              ; SOURCE LINE # 448 
038D 7B25       F                      LD     A,(025H,SP)   ; [ CAN_FilterIDMask4 ]
038F C7542F                            LD     0542FH,A
0392         ?NXT_0069:
              ; SOURCE LINE # 457 
0392 35065427                          MOV    05427H,#006H
              ; SOURCE LINE # 458 
0396 1E18       F                      LDW    X,(018H,SP)   ; [ CAN_FilterActivation ]
0398 272A                              JREQ   ?NXT_0078
              ; SOURCE LINE # 460 
039A A606                              LD     A,#006H
039C 1515       F                      BCP    A,(015H,SP)   ; [ CAN_FilterNumber + 01H ]
039E 260A                              JRNE   ?ELSE_0074
              ; SOURCE LINE # 461 
03A0 C65432                            LD     A,05432H
03A3 1A01       F                      OR     A,(001H,SP)   ; [ fact ]
03A5 C75432                            LD     05432H,A
03A8 201A                              JRA    ?NXT_0078
03AA         ?ELSE_0074:
              ; SOURCE LINE # 463 
03AA A606                              LD     A,#006H
03AC 1415       F                      AND    A,(015H,SP)   ; [ CAN_FilterNumber + 01H ]
03AE A102                              CP     A,#002H
03B0 260A                              JRNE   ?ELSE_0075
              ; SOURCE LINE # 464 
03B2 C65433                            LD     A,05433H
03B5 1A01       F                      OR     A,(001H,SP)   ; [ fact ]
03B7 C75433                            LD     05433H,A
03BA 2008                              JRA    ?NXT_0078
03BC         ?ELSE_0075:
              ; SOURCE LINE # 467 
03BC C65434                            LD     A,05434H
03BF 1A01       F                      OR     A,(001H,SP)   ; [ fact ]
03C1 C75434                            LD     05434H,A
03C4         ?NXT_0078:
              ; SOURCE LINE # 470 
03C4 5F                                CLRW   X
03C5 5C                                INCW   X
03C6 CD0000     F                      CALL   ?CAN_OperatingModeRequest
              ; SOURCE LINE # 472 
03C9 1E06       F                      LDW    X,(006H,SP)   ; [ can_page ]
03CB CD0000     F                      CALL   ?CAN_SelectPage
              ; SOURCE LINE # 473 
03CE 5B15                              ADD    SP,#015H
03D0 81                                RET    
              ; CAN_FilterNumber (size=2).  parameter in AUTO
              ; CAN_FilterActivation (size=2).  parameter in AUTO
              ; CAN_FilterMode (size=2).  parameter in AUTO
              ; CAN_FilterScale (size=2).  parameter in AUTO
              ; CAN_FilterID1 unsigned char  (size=1).  parameter in AUTO
              ; CAN_FilterID2 unsigned char  (size=1).  parameter in AUTO
              ; CAN_FilterID3 unsigned char  (size=1).  parameter in AUTO
              ; CAN_FilterID4 unsigned char  (size=1).  parameter in AUTO
              ; CAN_FilterIDMask1 unsigned char  (size=1).  parameter in AUTO
              ; CAN_FilterIDMask2 unsigned char  (size=1).  parameter in AUTO
              ; CAN_FilterIDMask3 unsigned char  (size=1).  parameter in AUTO
              ; CAN_FilterIDMask4 unsigned char  (size=1).  parameter in AUTO
              ; fact         unsigned char  (size=1). Automatic variable  in AUTO
              ; fsc          unsigned char  (size=1). Automatic variable  in AUTO
              ; fmhl         unsigned char  (size=1). Automatic variable  in AUTO
              ; can_page_filter (size=2). Automatic variable  in AUTO
              ; can_page     (size=2). Automatic variable  in AUTO

              ; FUNCTION ?CAN_FilterInit (END)

              ; FUNCTION ?CAN_ITConfig (BEGIN)
              ; Register-parameter CAN_IT (XW) is relocated (AUTO)
              ; SOURCE LINE # 481 
0000 89                                PUSHW  X
0001 5203                              SUB    SP,#003H
              ; SOURCE LINE # 484 
0003 CD0000     F                      CALL   ?CAN_GetSelectedPage
0006 1F02       F                      LDW    (002H,SP),X   ; [ can_page ]
              ; SOURCE LINE # 488 
0008 1E04       F                      LDW    X,(004H,SP)   ; [ CAN_IT ]
000A 2710                              JREQ   ?ELSE_0079
000C 7B05       F                      LD     A,(005H,SP)   ; [ CAN_IT + 01H ]
000E A470                              AND    A,#070H
0010 B704       F                      LD     ?BL,A
0012 7B04       F                      LD     A,(004H,SP)   ; [ CAN_IT ]
0014 A4B0                              AND    A,#0B0H
0016 B703       F                      LD     ?BH,A
0018 BE02       F                      LDW    X,?BH.w
001A 270E                              JREQ   ?NXT_0085
001C         ?ELSE_0079:
001C AE01E8                            LDW    X,#001E8H
001F 89                                PUSHW  X
0020 5F                                CLRW   X
0021 89                                PUSHW  X
0022 AE0000     F                      LDW    X,#HIGH(?STR?STM8S_CAN?BASE)
0025 CD0000     F                      CALL   ?assert_failed
0028 5B04                              ADD    SP,#004H
002A         ?NXT_0085:
              ; SOURCE LINE # 489 
002A 1E08       F                      LDW    X,(008H,SP)   ; [ NewState ]
002C 2711                              JREQ   ?NXT_0086
002E 5A                                DECW   X
002F 270E                              JREQ   ?NXT_0086
0031 AE01E9                            LDW    X,#001E9H
0034 89                                PUSHW  X
0035 5F                                CLRW   X
0036 89                                PUSHW  X
0037 AE0000     F                      LDW    X,#HIGH(?STR?STM8S_CAN?BASE)
003A CD0000     F                      CALL   ?assert_failed
003D 5B04                              ADD    SP,#004H
003F         ?NXT_0086:
              ; SOURCE LINE # 491 
003F 1E04       F                      LDW    X,(004H,SP)   ; [ CAN_IT ]
0041 54                                SRLW   X
0042 54                                SRLW   X
0043 54                                SRLW   X
0044 54                                SRLW   X
0045 54                                SRLW   X
0046 54                                SRLW   X
0047 54                                SRLW   X
0048 9F                                LD     A,XL
0049 6B01       F                      LD     (001H,SP),A   ; [ tmperrorinterrupt ]
              ; SOURCE LINE # 493 
004B A40F                              AND    A,#00FH
004D 44                                SRL    A
004E B706       F                      LD     ?CL,A
0050 7B01       F                      LD     A,(001H,SP)   ; [ tmperrorinterrupt ]
0052 A4F0                              AND    A,#0F0H
0054 BA06       F                      OR     A,?CL
0056 6B01       F                      LD     (001H,SP),A   ; [ tmperrorinterrupt ]
              ; SOURCE LINE # 495 
0058 35065427                          MOV    05427H,#006H
              ; SOURCE LINE # 496 
005C 1E08       F                      LDW    X,(008H,SP)   ; [ NewState ]
005E 270F                              JREQ   ?ELSE_0081
              ; SOURCE LINE # 499 
0060 C65425                            LD     A,05425H
0063 1A05       F                      OR     A,(005H,SP)   ; [ CAN_IT + 01H ]
0065 C75425                            LD     05425H,A
              ; SOURCE LINE # 500 
0068 C65429                            LD     A,05429H
006B 1A01       F                      OR     A,(001H,SP)   ; [ tmperrorinterrupt ]
006D 200F                              JRA    ?NXT_0087
006F         ?ELSE_0081:
              ; SOURCE LINE # 505 
006F 7B05       F                      LD     A,(005H,SP)   ; [ CAN_IT + 01H ]
0071 43                                CPL    A
0072 C45425                            AND    A,05425H
0075 C75425                            LD     05425H,A
              ; SOURCE LINE # 506 
0078 7B01       F                      LD     A,(001H,SP)   ; [ tmperrorinterrupt ]
007A 43                                CPL    A
007B C45429                            AND    A,05429H
007E         ?NXT_0087:
007E C75429                            LD     05429H,A
              ; SOURCE LINE # 509 
0081 1E02       F                      LDW    X,(002H,SP)   ; [ can_page ]
0083 CD0000     F                      CALL   ?CAN_SelectPage
              ; SOURCE LINE # 510 
0086 5B05                              ADD    SP,#005H
0088 81                                RET    
              ; CAN_IT       (size=2).  parameter in AUTO
              ; NewState     (size=2).  parameter in AUTO
              ; tmperrorinterrupt unsigned char  (size=1). Automatic variable  in AUTO
              ; can_page     (size=2). Automatic variable  in AUTO

              ; FUNCTION ?CAN_ITConfig (END)

              ; FUNCTION ?CAN_ST7CompatibilityCmd (BEGIN)
              ; Register-parameter CAN_ST7Compatibility (XW) is relocated (AUTO)
              ; SOURCE LINE # 519 
0000 89                                PUSHW  X
              ; SOURCE LINE # 522 
0001 5D                                TNZW   X
0002 2713                              JREQ   ?NXT_0089
0004 A30010                            CPW    X,#00010H
0007 270E                              JREQ   ?NXT_0089
0009 AE020A                            LDW    X,#0020AH
000C 89                                PUSHW  X
000D 5F                                CLRW   X
000E 89                                PUSHW  X
000F AE0000     F                      LDW    X,#HIGH(?STR?STM8S_CAN?BASE)
0012 CD0000     F                      CALL   ?assert_failed
0015 5B04                              ADD    SP,#004H
0017         ?NXT_0089:
              ; SOURCE LINE # 524 
0017 72195426                          BRES   05426H,#004H
              ; SOURCE LINE # 527 
001B C65426                            LD     A,05426H
001E 1A02       F                      OR     A,(002H,SP)   ; [ CAN_ST7Compatibility + 01H ]
0020 C75426                            LD     05426H,A
              ; SOURCE LINE # 528 
0023 85                                POPW   X
0024 81                                RET    
              ; CAN_ST7Compatibility (size=2).  parameter in AUTO

              ; FUNCTION ?CAN_ST7CompatibilityCmd (END)

              ; FUNCTION ?CAN_TTComModeCmd (BEGIN)
              ; Register-parameter NewState (XW) is relocated (AUTO)
              ; SOURCE LINE # 535 
0000 89                                PUSHW  X
0001 89                                PUSHW  X
              ; SOURCE LINE # 537 
0002 CD0000     F                      CALL   ?CAN_GetSelectedPage
0005 1F01       F                      LDW    (001H,SP),X   ; [ can_page ]
              ; SOURCE LINE # 539 
0007 1E03       F                      LDW    X,(003H,SP)   ; [ NewState ]
0009 2711                              JREQ   ?NXT_0092
000B 5A                                DECW   X
000C 270E                              JREQ   ?NXT_0092
000E AE021B                            LDW    X,#0021BH
0011 89                                PUSHW  X
0012 5F                                CLRW   X
0013 89                                PUSHW  X
0014 AE0000     F                      LDW    X,#HIGH(?STR?STM8S_CAN?BASE)
0017 CD0000     F                      CALL   ?assert_failed
001A 5B04                              ADD    SP,#004H
001C         ?NXT_0092:
              ; SOURCE LINE # 540 
001C 1E03       F                      LDW    X,(003H,SP)   ; [ NewState ]
001E 2726                              JREQ   ?ELSE_0087
              ; SOURCE LINE # 543 
0020 721E5420                          BSET   05420H,#007H
              ; SOURCE LINE # 545 
0024 725F5427                          CLR    05427H
              ; SOURCE LINE # 546 
0028 721E5429                          BSET   05429H,#007H
              ; SOURCE LINE # 547 
002C 35015427                          MOV    05427H,#001H
              ; SOURCE LINE # 548 
0030 721E5429                          BSET   05429H,#007H
              ; SOURCE LINE # 549 
0034 35055427                          MOV    05427H,#005H
              ; SOURCE LINE # 550 
0038 721E5429                          BSET   05429H,#007H
              ; SOURCE LINE # 551 
003C 35075427                          MOV    05427H,#007H
              ; SOURCE LINE # 552 
0040 721E5429                          BSET   05429H,#007H
0044 2024                              JRA    ?NXT_0093
0046         ?ELSE_0087:
              ; SOURCE LINE # 557 
0046 721F5420                          BRES   05420H,#007H
              ; SOURCE LINE # 559 
004A 725F5427                          CLR    05427H
              ; SOURCE LINE # 560 
004E 721F5429                          BRES   05429H,#007H
              ; SOURCE LINE # 561 
0052 35015427                          MOV    05427H,#001H
              ; SOURCE LINE # 562 
0056 721F5429                          BRES   05429H,#007H
              ; SOURCE LINE # 563 
005A 35055427                          MOV    05427H,#005H
              ; SOURCE LINE # 564 
005E 721F5429                          BRES   05429H,#007H
              ; SOURCE LINE # 565 
0062 35075427                          MOV    05427H,#007H
              ; SOURCE LINE # 566 
0066 721F5429                          BRES   05429H,#007H
006A         ?NXT_0093:
              ; SOURCE LINE # 569 
006A 1E01       F                      LDW    X,(001H,SP)   ; [ can_page ]
006C CD0000     F                      CALL   ?CAN_SelectPage
              ; SOURCE LINE # 570 
006F 5B04                              ADD    SP,#004H
0071 81                                RET    
              ; NewState     (size=2).  parameter in AUTO
              ; can_page     (size=2). Automatic variable  in AUTO

              ; FUNCTION ?CAN_TTComModeCmd (END)

              ; FUNCTION ?CAN_Transmit (BEGIN)
              ; SOURCE LINE # 581 
0000 5204                              SUB    SP,#004H
              ; SOURCE LINE # 587 
0002 AE00F4                            LDW    X,#000F4H
0005 1F01       F                      LDW    (001H,SP),X   ; [ CAN_TxStatus ]
              ; SOURCE LINE # 588 
0007 CD0000     F                      CALL   ?CAN_GetSelectedPage
000A 1F03       F                      LDW    (003H,SP),X   ; [ can_page ]
              ; SOURCE LINE # 590 
000C 1E0B       F                      LDW    X,(00BH,SP)   ; [ CAN_IDE ]
000E 2713                              JREQ   ?NXT_0105
0010 A30040                            CPW    X,#00040H
0013 270E                              JREQ   ?NXT_0105
0015 AE024E                            LDW    X,#0024EH
0018 89                                PUSHW  X
0019 5F                                CLRW   X
001A 89                                PUSHW  X
001B AE0000     F                      LDW    X,#HIGH(?STR?STM8S_CAN?BASE)
001E CD0000     F                      CALL   ?assert_failed
0021 5B04                              ADD    SP,#004H
0023         ?NXT_0105:
              ; SOURCE LINE # 591 
0023 1E0B       F                      LDW    X,(00BH,SP)   ; [ CAN_IDE ]
0025 2720                              JREQ   ?ELSE_0100
              ; SOURCE LINE # 593 
0027 CD0000     F DNF            M(07)  CALL  ?C?mv4_pg2bc
002A         ?DATASTART_0024:
002A 1F                             M  DB     01FH
002B FF                             M  DB     0FFH
002C FF                             M  DB     0FFH
002D FF                             M  DB     0FFH
002E         ?DATAEND_0024:
002E 96           DNF                  LDW    X,SP
002F 1C0007     F                      ADDW   X,#00007H
0032 CD0000     F                      CALL   ?C?cpu3232ix
0035 242E                              JRUGE  ?NXT_0106
0037 AE0251                            LDW    X,#00251H
003A 89                                PUSHW  X
003B 5F                                CLRW   X
003C 89                                PUSHW  X
003D AE0000     F                      LDW    X,#HIGH(?STR?STM8S_CAN?BASE)
0040 CD0000     F                      CALL   ?assert_failed
0043 5B04                              ADD    SP,#004H
0045 201E                              JRA    ?NXT_0106
0047         ?ELSE_0100:
              ; SOURCE LINE # 597 
0047 CD0000     F DNF            M(07)  CALL  ?C?mv4_pg2bc
004A         ?DATASTART_0025:
004A 00                             M  DB     000H
004B 00                             M  DB     000H
004C 07                             M  DB     007H
004D FF                             M  DB     0FFH
004E         ?DATAEND_0025:
004E 96           DNF                  LDW    X,SP
004F 1C0007     F                      ADDW   X,#00007H
0052 CD0000     F                      CALL   ?C?cpu3232ix
0055 240E                              JRUGE  ?NXT_0106
0057 AE0255                            LDW    X,#00255H
005A 89                                PUSHW  X
005B 5F                                CLRW   X
005C 89                                PUSHW  X
005D AE0000     F                      LDW    X,#HIGH(?STR?STM8S_CAN?BASE)
0060 CD0000     F                      CALL   ?assert_failed
0063 5B04                              ADD    SP,#004H
0065         ?NXT_0106:
              ; SOURCE LINE # 599 
0065 1E0D       F                      LDW    X,(00DH,SP)   ; [ CAN_RTR ]
0067 2713                              JREQ   ?NXT_0109
0069 A30020                            CPW    X,#00020H
006C 270E                              JREQ   ?NXT_0109
006E AE0257                            LDW    X,#00257H
0071 89                                PUSHW  X
0072 5F                                CLRW   X
0073 89                                PUSHW  X
0074 AE0000     F                      LDW    X,#HIGH(?STR?STM8S_CAN?BASE)
0077 CD0000     F                      CALL   ?assert_failed
007A 5B04                              ADD    SP,#004H
007C         ?NXT_0109:
              ; SOURCE LINE # 600 
007C 7B0F       F                      LD     A,(00FH,SP)   ; [ CAN_DLC ]
007E A108                              CP     A,#008H
0080 2D0E                              JRSLE  ?NXT_0110
0082 AE0258                            LDW    X,#00258H
0085 89                                PUSHW  X
0086 5F                                CLRW   X
0087 89                                PUSHW  X
0088 AE0000     F                      LDW    X,#HIGH(?STR?STM8S_CAN?BASE)
008B CD0000     F                      CALL   ?assert_failed
008E 5B04                              ADD    SP,#004H
0090         ?NXT_0110:
              ; SOURCE LINE # 602 
0090 7205542305                        BTJF   05423H,#002H,?ELSE_0105
              ; SOURCE LINE # 604 
0095 5F                                CLRW   X
0096 1F01       F                      LDW    (001H,SP),X   ; [ CAN_TxStatus ]
0098 201C                              JRA    ?NXT_0111
009A         ?ELSE_0105:
              ; SOURCE LINE # 606 
009A 7207542306                        BTJF   05423H,#003H,?ELSE_0106
              ; SOURCE LINE # 608 
009F 5F                                CLRW   X
00A0 5C                                INCW   X
00A1 1F01       F                      LDW    (001H,SP),X   ; [ CAN_TxStatus ]
00A3 2011                              JRA    ?NXT_0111
00A5         ?ELSE_0106:
              ; SOURCE LINE # 610 
00A5 7209542307                        BTJF   05423H,#004H,?ELSE_0107
              ; SOURCE LINE # 612 
00AA AE0005                            LDW    X,#00005H
00AD 1F01       F                      LDW    (001H,SP),X   ; [ CAN_TxStatus ]
00AF 2005                              JRA    ?NXT_0111
00B1         ?ELSE_0107:
              ; SOURCE LINE # 616 
00B1 AE00F4                            LDW    X,#000F4H
00B4 1F01       F                      LDW    (001H,SP),X   ; [ CAN_TxStatus ]
00B6         ?NXT_0111:
              ; SOURCE LINE # 618 
00B6 AE00F4                            LDW    X,#000F4H
00B9 1301       F                      CPW    X,(001H,SP)   ; [ CAN_TxStatus ]
00BB 2603                              JRNE   ?LAB_0064
00BD CC0000     F                      JP     ?NXT_0114
00C0         ?LAB_0064:
              ; SOURCE LINE # 620 
00C0 7B02       F                      LD     A,(002H,SP)   ; [ CAN_TxStatus + 01H ]
00C2 C75427                            LD     05427H,A
              ; SOURCE LINE # 622 
00C5 1E0B       F                      LDW    X,(00BH,SP)   ; [ CAN_IDE ]
00C7 2773                              JREQ   ?ELSE_0109
              ; SOURCE LINE # 624 
00C9 1E09       F                      LDW    X,(009H,SP)   ; [ CAN_Id + 02H ]
00CB 89                                PUSHW  X
00CC 1E09       F                      LDW    X,(009H,SP)   ; [ CAN_Id ]
00CE 89                                PUSHW  X
00CF CD0000     F DNF            M(07)  CALL  ?C?mv4_pg2bc
00D2         ?DATASTART_0026:
00D2 1F                             M  DB     01FH
00D3 FF                             M  DB     0FFH
00D4 FF                             M  DB     0FFH
00D5 FF                             M  DB     0FFH
00D6         ?DATAEND_0026:
00D6 CD0000     F DNF                  CALL   ?C?and3232
00D9 A606       F                      LD     A,#006H
00DB CD0000     F                      CALL   ?C?mv4_bc2isa
              ; SOURCE LINE # 625 
00DE 7B0A       F                      LD     A,(00AH,SP)   ; [ CAN_Id + 03H ]
00E0 C7542D                            LD     0542DH,A
              ; SOURCE LINE # 626 
00E3 A606       F                      LD     A,#006H
00E5 CD0000     F DNF                  CALL   ?C?mv4_isa2bc
00E8 A608                              LD     A,#008H
00EA CD0000     F                      CALL   ?C?srl328
00ED A606       F                      LD     A,#006H
00EF CD0000     F                      CALL   ?C?mv4_bc2isa
              ; SOURCE LINE # 627 
00F2 7B0A       F                      LD     A,(00AH,SP)   ; [ CAN_Id + 03H ]
00F4 C7542C                            LD     0542CH,A
              ; SOURCE LINE # 628 
00F7 A606       F                      LD     A,#006H
00F9 CD0000     F DNF                  CALL   ?C?mv4_isa2bc
00FC A608                              LD     A,#008H
00FE CD0000     F                      CALL   ?C?srl328
0101 A606       F                      LD     A,#006H
0103 CD0000     F                      CALL   ?C?mv4_bc2isa
              ; SOURCE LINE # 629 
0106 7B0A       F                      LD     A,(00AH,SP)   ; [ CAN_Id + 03H ]
0108 C7542B                            LD     0542BH,A
              ; SOURCE LINE # 630 
010B A606       F                      LD     A,#006H
010D CD0000     F DNF                  CALL   ?C?mv4_isa2bc
0110 A608                              LD     A,#008H
0112 CD0000     F                      CALL   ?C?srl328
0115 A606       F                      LD     A,#006H
0117 CD0000     F                      CALL   ?C?mv4_bc2isa
              ; SOURCE LINE # 631 
011A 1E0B       F                      LDW    X,(00BH,SP)   ; [ CAN_IDE ]
011C CD0000     F                      CALL   ?C?inttol
011F CD0000     F DNF                  CALL   ?C?mv4_bc2sk
0122 A60A       F                      LD     A,#00AH
0124 CD0000     F DNF                  CALL   ?C?mv4_isa2bc
0127 CD0000     F DNF                  CALL   ?C?or3232
012A CD0000     F DNF                  CALL   ?C?mv4_bc2sk
012D 1E11       F                      LDW    X,(011H,SP)   ; [ CAN_RTR ]
012F CD0000     F                      CALL   ?C?inttol
0132 CD0000     F DNF                  CALL   ?C?or3232
0135 550006542A F                      MOV    0542AH,?CL
013A 2039                              JRA    ?NXT_0115
013C         ?ELSE_0109:
              ; SOURCE LINE # 635 
013C 1E09       F                      LDW    X,(009H,SP)   ; [ CAN_Id + 02H ]
013E 89                                PUSHW  X
013F 1E09       F                      LDW    X,(009H,SP)   ; [ CAN_Id ]
0141 89                                PUSHW  X
0142 CD0000     F DNF            M(07)  CALL  ?C?mv4_pg2bc
0145         ?DATASTART_0027:
0145 00                             M  DB     000H
0146 00                             M  DB     000H
0147 07                             M  DB     007H
0148 FF                             M  DB     0FFH
0149         ?DATAEND_0027:
0149 CD0000     F DNF                  CALL   ?C?and3232
014C A606       F                      LD     A,#006H
014E CD0000     F                      CALL   ?C?mv4_bc2isa
              ; SOURCE LINE # 636 
0151 A606                              LD     A,#006H
0153 CD0000     F                      CALL   ?C?srl328
0156 CD0000     F DNF                  CALL   ?C?mv4_bc2sk
0159 1E11       F                      LDW    X,(011H,SP)   ; [ CAN_RTR ]
015B CD0000     F                      CALL   ?C?inttol
015E CD0000     F DNF                  CALL   ?C?or3232
0161 550006542A F                      MOV    0542AH,?CL
              ; SOURCE LINE # 637 
0166 A606       F                      LD     A,#006H
0168 CD0000     F DNF                  CALL   ?C?mv4_isa2bc
016B A602                              LD     A,#002H
016D CD0000     F                      CALL   ?C?sll328
0170 550006542B F                      MOV    0542BH,?CL
0175         ?NXT_0115:
              ; SOURCE LINE # 641 
0175 A6F0                              LD     A,#0F0H
0177 C45429                            AND    A,05429H
017A C75429                            LD     05429H,A
              ; SOURCE LINE # 643 
017D C65429                            LD     A,05429H
0180 1A0F       F                      OR     A,(00FH,SP)   ; [ CAN_DLC ]
0182 C75429                            LD     05429H,A
              ; SOURCE LINE # 645 
0185 1E10       F                      LDW    X,(010H,SP)   ; [ CAN_Data ]
0187 F6                                LD     A,(X)
0188 C7542E                            LD     0542EH,A
              ; SOURCE LINE # 646 
018B E601                              LD     A,(001H,X)
018D C7542F                            LD     0542FH,A
              ; SOURCE LINE # 647 
0190 E602                              LD     A,(002H,X)
0192 C75430                            LD     05430H,A
              ; SOURCE LINE # 648 
0195 E603                              LD     A,(003H,X)
0197 C75431                            LD     05431H,A
              ; SOURCE LINE # 649 
019A E604                              LD     A,(004H,X)
019C C75432                            LD     05432H,A
              ; SOURCE LINE # 650 
019F E605                              LD     A,(005H,X)
01A1 C75433                            LD     05433H,A
              ; SOURCE LINE # 651 
01A4 E606                              LD     A,(006H,X)
01A6 C75434                            LD     05434H,A
              ; SOURCE LINE # 652 
01A9 E607                              LD     A,(007H,X)
01AB C75435                            LD     05435H,A
              ; SOURCE LINE # 654 
01AE 72105428                          BSET   05428H,#000H
01B2         ?NXT_0114:
              ; SOURCE LINE # 657 
01B2 1E03       F                      LDW    X,(003H,SP)   ; [ can_page ]
01B4 CD0000     F                      CALL   ?CAN_SelectPage
              ; SOURCE LINE # 658 
01B7 1E01       F                      LDW    X,(001H,SP)   ; [ CAN_TxStatus ]
              ; SOURCE LINE # 659 
01B9 5B04                              ADD    SP,#004H
01BB 81                                RET    
              ; CAN_Id       unsigned long  (size=4-Alg).  parameter in AUTO
              ; CAN_IDE      (size=2).  parameter in AUTO
              ; CAN_RTR      (size=2).  parameter in AUTO
              ; CAN_DLC      unsigned char  (size=1).  parameter in AUTO
              ; CAN_Data     pointer to (unsigned char   in )(size=2).  parameter in AUTO
              ; CAN_TxStatus (size=2). Automatic variable  in AUTO
              ; can_page     (size=2). Automatic variable  in AUTO

              ; FUNCTION ?CAN_Transmit (END)

              ; FUNCTION ?CAN_TransmitStatus (BEGIN)
              ; Register-parameter CAN_TransmitMailbox (XW) is relocated (AUTO)
              ; SOURCE LINE # 666 
0000 89                                PUSHW  X
0001 5203                              SUB    SP,#003H
              ; SOURCE LINE # 673 
0003 1E04       F                      LDW    X,(004H,SP)   ; [ CAN_TransmitMailbox ]
0005 2718                              JREQ   ?NXT_0119
0007 5A                                DECW   X
0008 2715                              JREQ   ?NXT_0119
000A AE0005                            LDW    X,#00005H
000D 1304       F                      CPW    X,(004H,SP)   ; [ CAN_TransmitMailbox ]
000F 270E                              JREQ   ?NXT_0119
0011 AE02A1                            LDW    X,#002A1H
0014 89                                PUSHW  X
0015 5F                                CLRW   X
0016 89                                PUSHW  X
0017 AE0000     F                      LDW    X,#HIGH(?STR?STM8S_CAN?BASE)
001A CD0000     F                      CALL   ?assert_failed
001D 5B04                              ADD    SP,#004H
001F         ?NXT_0119:
              ; SOURCE LINE # 675 
001F 1E04       F                      LDW    X,(004H,SP)   ; [ CAN_TransmitMailbox ]
0021 271B                              JREQ   ?CASE_0007
0023 A30001                            CPW    X,#00001H
0026 2724                              JREQ   ?CASE_0008
0028 A30005                            CPW    X,#00005H
002B 262D                              JRNE   ?DEFAULT_0002
002D C65422                            LD     A,05422H
0030 A444                              AND    A,#044H
0032 44                                SRL    A
0033 44                                SRL    A
0034 6B03       F                      LD     (003H,SP),A   ; [ tmpstate ]
0036 C65423                            LD     A,05423H
0039 A410                              AND    A,#010H
003B 44                                SRL    A
003C 201B                              JRA    ?CASE_0009
003E         ?CASE_0007:
              ; SOURCE LINE # 677 
003E C65422                            LD     A,05422H
0041 A411                              AND    A,#011H
0043 6B03       F                      LD     (003H,SP),A   ; [ tmpstate ]
              ; SOURCE LINE # 678 
0045 C65423                            LD     A,05423H
0048 A404                              AND    A,#004H
              ; SOURCE LINE # 679 
004A 200E                              JRA    ?NXT_0120
004C         ?CASE_0008:
              ; SOURCE LINE # 680 
004C C65422                            LD     A,05422H
004F A422                              AND    A,#022H
0051 44                                SRL    A
0052 6B03       F                      LD     (003H,SP),A   ; [ tmpstate ]
              ; SOURCE LINE # 681 
0054 C65423                            LD     A,05423H
0057 A408                              AND    A,#008H
0059         ?CASE_0009:
              ; SOURCE LINE # 683 
0059 44                                SRL    A
005A         ?DEFAULT_0002:

005A         ?NXT_0120:
              ; SOURCE LINE # 688 
005A 1A03       F                      OR     A,(003H,SP)   ; [ tmpstate ]
005C 6B03       F                      LD     (003H,SP),A   ; [ tmpstate ]
              ; SOURCE LINE # 691 
005E 2711                              JREQ   ?CASE_0010
0060 A104                              CP     A,#004H
0062 2717                              JREQ   ?CASE_0011
0064 A105                              CP     A,#005H
0066 270E                              JREQ   ?CASE_0012
0068 A115                              CP     A,#015H
006A 2614                              JRNE   ?DEFAULT_0003
006C AE00F1                            LDW    X,#000F1H
006F 2012                              JRA    ?NXT_0121
0071         ?CASE_0010:
              ; SOURCE LINE # 694 
0071 AE00F2                            LDW    X,#000F2H
              ; SOURCE LINE # 695 
0074 200D                              JRA    ?NXT_0121
0076         ?CASE_0012:
              ; SOURCE LINE # 697 
0076 AE00F0                            LDW    X,#000F0H
              ; SOURCE LINE # 698 
0079 2008                              JRA    ?NXT_0121
007B         ?CASE_0011:
              ; SOURCE LINE # 703 
007B AE00F5                            LDW    X,#000F5H
              ; SOURCE LINE # 704 
007E 2003                              JRA    ?NXT_0121
0080         ?DEFAULT_0003:
              ; SOURCE LINE # 706 
0080 AE00F0                            LDW    X,#000F0H
0083         ?NXT_0121:
              ; SOURCE LINE # 711 
0083 5B05                              ADD    SP,#005H
0085 81                                RET    
              ; CAN_TransmitMailbox (size=2).  parameter in AUTO
              ; tstate       (size=2). Automatic variable  in AUTO
              ; tmpstate     unsigned char  (size=1). Automatic variable  in AUTO

              ; FUNCTION ?CAN_TransmitStatus (END)

              ; FUNCTION ?CAN_CancelTransmit (BEGIN)
              ; Register-parameter CAN_TransmitMailbox (XW) is relocated (AUTO)
              ; SOURCE LINE # 718 
0000 89                                PUSHW  X
0001 89                                PUSHW  X
              ; SOURCE LINE # 720 
0002 CD0000     F                      CALL   ?CAN_GetSelectedPage
0005 1F01       F                      LDW    (001H,SP),X   ; [ can_page ]
              ; SOURCE LINE # 722 
0007 1E03       F                      LDW    X,(003H,SP)   ; [ CAN_TransmitMailbox ]
0009 2718                              JREQ   ?NXT_0123
000B 5A                                DECW   X
000C 2715                              JREQ   ?NXT_0123
000E AE0005                            LDW    X,#00005H
0011 1303       F                      CPW    X,(003H,SP)   ; [ CAN_TransmitMailbox ]
0013 270E                              JREQ   ?NXT_0123
0015 AE02D2                            LDW    X,#002D2H
0018 89                                PUSHW  X
0019 5F                                CLRW   X
001A 89                                PUSHW  X
001B AE0000     F                      LDW    X,#HIGH(?STR?STM8S_CAN?BASE)
001E CD0000     F                      CALL   ?assert_failed
0021 5B04                              ADD    SP,#004H
0023         ?NXT_0123:
              ; SOURCE LINE # 724 
0023 7B04       F                      LD     A,(004H,SP)   ; [ CAN_TransmitMailbox + 01H ]
0025 C75427                            LD     05427H,A
              ; SOURCE LINE # 726 
0028 72125428                          BSET   05428H,#001H
              ; SOURCE LINE # 728 
002C 1E01       F                      LDW    X,(001H,SP)   ; [ can_page ]
002E CD0000     F                      CALL   ?CAN_SelectPage
              ; SOURCE LINE # 729 
0031 5B04                              ADD    SP,#004H
0033 81                                RET    
              ; CAN_TransmitMailbox (size=2).  parameter in AUTO
              ; can_page     (size=2). Automatic variable  in AUTO

              ; FUNCTION ?CAN_CancelTransmit (END)

              ; FUNCTION ?CAN_FIFORelease (BEGIN)
              ; SOURCE LINE # 739 
0000 35205424                          MOV    05424H,#020H
              ; SOURCE LINE # 740 
0004 81                                RET    

              ; FUNCTION ?CAN_FIFORelease (END)

              ; FUNCTION ?CAN_MessagePending (BEGIN)
              ; SOURCE LINE # 749 
0000 C65424                            LD     A,05424H
0003 5F                                CLRW   X
0004 A403                              AND    A,#003H
0006 97                                LD     XL,A
              ; SOURCE LINE # 751 
0007 81                                RET    
              ; msgpending   (size=2). Automatic variable  in AUTO

              ; FUNCTION ?CAN_MessagePending (END)

              ; FUNCTION ?CAN_Receive (BEGIN)
              ; SOURCE LINE # 761 
0000 520E                              SUB    SP,#00EH
              ; SOURCE LINE # 763 
0002 CD0000     F                      CALL   ?CAN_GetSelectedPage
0005 1F01       F                      LDW    (001H,SP),X   ; [ can_page ]
              ; SOURCE LINE # 764 
0007 5F                                CLRW   X
0008 1F03       F                      LDW    (003H,SP),X   ; [ temp1 ]
000A 1F05       F                      LDW    (005H,SP),X   ; [ temp1 + 02H ]
000C 1F07       F                      LDW    (007H,SP),X   ; [ temp2 ]
000E 1F09       F                      LDW    (009H,SP),X   ; [ temp2 + 02H ]
0010 1F0B       F                      LDW    (00BH,SP),X   ; [ temp3 ]
0012 1F0D       F                      LDW    (00DH,SP),X   ; [ temp3 + 02H ]
              ; SOURCE LINE # 767 
0014 35075427                          MOV    05427H,#007H
              ; SOURCE LINE # 770 
0018 C6542A                            LD     A,0542AH
001B A440                              AND    A,#040H
001D C70000     F                      LD     _IDE,A
              ; SOURCE LINE # 771 
0020 275F                              JREQ   ?ELSE_0115
              ; SOURCE LINE # 773 
0022 C6542C                            LD     A,0542CH
0025 CD0000     F                      CALL   ?C?uchartol
0028 A608                              LD     A,#008H
002A CD0000     F                      CALL   ?C?sll328
002D A602       F                      LD     A,#002H
002F CD0000     F                      CALL   ?C?mv4_bc2isa
              ; SOURCE LINE # 774 
0032 C6542B                            LD     A,0542BH
0035 CD0000     F                      CALL   ?C?uchartol
0038 A610                              LD     A,#010H
003A CD0000     F                      CALL   ?C?sll328
003D A606       F                      LD     A,#006H
003F CD0000     F                      CALL   ?C?mv4_bc2isa
              ; SOURCE LINE # 775 
0042 C6542A                            LD     A,0542AH
0045 CD0000     F                      CALL   ?C?uchartol
0048 A61F                              LD     A,#01FH
004A B406       F                      AND    A,?CL
004C CD0000     F                      CALL   ?C?uchartol
004F A618                              LD     A,#018H
0051 CD0000     F                      CALL   ?C?sll328
0054 A60A       F                      LD     A,#00AH
0056 CD0000     F                      CALL   ?C?mv4_bc2isa
              ; SOURCE LINE # 777 
0059 5F                                CLRW   X
005A 5A                                DECW   X
005B 89                                PUSHW  X
005C AE1FFF                            LDW    X,#01FFFH
005F 89                                PUSHW  X
0060 1E09       F                      LDW    X,(009H,SP)   ; [ temp1 + 02H ]
0062 89                                PUSHW  X
0063 1E09       F                      LDW    X,(009H,SP)   ; [ temp1 ]
0065 89                                PUSHW  X
0066 C6542D                            LD     A,0542DH
0069 CD0000     F                      CALL   ?C?uchartol
006C CD0000     F DNF                  CALL   ?C?or3232
006F CD0000     F DNF                  CALL   ?C?mv4_bc2sk
0072 A60E       F                      LD     A,#00EH
0074 CD0000     F DNF                  CALL   ?C?mv4_isa2bc
0077 CD0000     F DNF                  CALL   ?C?or3232
007A CD0000     F DNF                  CALL   ?C?mv4_bc2sk
007D A612       F                      LD     A,#012H
007F 2034                              JRA    ?NXT_0125
0081         ?ELSE_0115:
              ; SOURCE LINE # 781 
0081 C6542A                            LD     A,0542AH
0084 A41F                              AND    A,#01FH
0086 5F                                CLRW   X
0087 97                                LD     XL,A
0088 58                                SLAW   X
0089 58                                SLAW   X
008A 58                                SLAW   X
008B 58                                SLAW   X
008C 58                                SLAW   X
008D 58                                SLAW   X
008E BF03       F                      LDW    ?CH,X
0090 5F                                CLRW   X
0091 BF03       F                      LDW    ?BH,X
0093 A602       F                      LD     A,#002H
0095 CD0000     F                      CALL   ?C?mv4_bc2isa
              ; SOURCE LINE # 782 
0098 C6542B                            LD     A,0542BH
009B 44                                SRL    A
009C 44                                SRL    A
009D A43F                              AND    A,#03FH
009F CD0000     F                      CALL   ?C?uchartol
00A2 A606       F                      LD     A,#006H
00A4 CD0000     F                      CALL   ?C?mv4_bc2isa
              ; SOURCE LINE # 784 
00A7 AE07FF                            LDW    X,#007FFH
00AA 89                                PUSHW  X
00AB 5F                                CLRW   X
00AC 89                                PUSHW  X
00AD 1E0D       F                      LDW    X,(00DH,SP)   ; [ temp2 + 02H ]
00AF 89                                PUSHW  X
00B0 1E0D       F                      LDW    X,(00DH,SP)   ; [ temp2 ]
00B2 89                                PUSHW  X
00B3 A60A       F                      LD     A,#00AH
00B5         ?NXT_0125:
00B5 CD0000     F DNF                  CALL   ?C?mv4_isa2bc
00B8 CD0000     F DNF                  CALL   ?C?or3232
00BB CD0000     F DNF                  CALL   ?C?and3232
00BE AE0000     F                      LDW    X,#HIGH(_Id)
00C1 CD0000     F                      CALL   ?C?mv4_bc2ix
              ; SOURCE LINE # 787 
00C4 C6542A                            LD     A,0542AH
00C7 A420                              AND    A,#020H
00C9 C70000     F                      LD     _RTR,A
              ; SOURCE LINE # 790 
00CC C65429                            LD     A,05429H
00CF A40F                              AND    A,#00FH
00D1 C70000     F                      LD     _DLC,A
              ; SOURCE LINE # 793 
00D4 5554280000 F                      MOV    _FMI,05428H
              ; SOURCE LINE # 796 
00D9 55542E0000 F                      MOV    _Data,0542EH
              ; SOURCE LINE # 797 
00DE 55542F0000 F                      MOV    _Data + 01H,0542FH
              ; SOURCE LINE # 798 
00E3 5554300000 F                      MOV    _Data + 02H,05430H
              ; SOURCE LINE # 799 
00E8 5554310000 F                      MOV    _Data + 03H,05431H
              ; SOURCE LINE # 800 
00ED 5554320000 F                      MOV    _Data + 04H,05432H
              ; SOURCE LINE # 801 
00F2 5554330000 F                      MOV    _Data + 05H,05433H
              ; SOURCE LINE # 802 
00F7 5554340000 F                      MOV    _Data + 06H,05434H
              ; SOURCE LINE # 803 
00FC 5554350000 F                      MOV    _Data + 07H,05435H
              ; SOURCE LINE # 806 
0101 CD0000     F                      CALL   ?CAN_FIFORelease
              ; SOURCE LINE # 808 
0104 1E01       F                      LDW    X,(001H,SP)   ; [ can_page ]
0106 CD0000     F                      CALL   ?CAN_SelectPage
              ; SOURCE LINE # 809 
0109 5B0E                              ADD    SP,#00EH
010B 81                                RET    
              ; can_page     (size=2). Automatic variable  in AUTO
              ; temp1        unsigned long  (size=4-Alg). Automatic variable  in AUTO
              ; temp2        unsigned long  (size=4-Alg). Automatic variable  in AUTO
              ; temp3        unsigned long  (size=4-Alg). Automatic variable  in AUTO

              ; FUNCTION ?CAN_Receive (END)

              ; FUNCTION ?CAN_GetReceivedId (BEGIN)
              ; SOURCE LINE # 821 
0000 AE0000     F                      LDW    X,#_Id
0003 CC0000     F                      JP     ?C?mv4_ix2bc

              ; FUNCTION ?CAN_GetReceivedId (END)

              ; FUNCTION ?CAN_GetReceivedIDE (BEGIN)
              ; SOURCE LINE # 834 
0000 C60000     F                      LD     A,_IDE
0003 5F                                CLRW   X
0004 97                                LD     XL,A
              ; SOURCE LINE # 835 
0005 81                                RET    

              ; FUNCTION ?CAN_GetReceivedIDE (END)

              ; FUNCTION ?CAN_GetReceivedRTR (BEGIN)
              ; SOURCE LINE # 847 
0000 C60000     F                      LD     A,_RTR
0003 5F                                CLRW   X
0004 97                                LD     XL,A
              ; SOURCE LINE # 848 
0005 81                                RET    

              ; FUNCTION ?CAN_GetReceivedRTR (END)

              ; FUNCTION ?CAN_GetReceivedDLC (BEGIN)
              ; SOURCE LINE # 860 
0000 C60000     F                      LD     A,_DLC
              ; SOURCE LINE # 861 
0003 81                                RET    

              ; FUNCTION ?CAN_GetReceivedDLC (END)

              ; FUNCTION ?CAN_GetReceivedData (BEGIN)
              ; Register-parameter CAN_DataIndex (A) is relocated (AUTO)
              ; SOURCE LINE # 872 
0000 88                                PUSH   A
              ; SOURCE LINE # 874 
0001 A108                              CP     A,#008H
0003 2D0E                              JRSLE  ?NXT_0127
0005 AE036A                            LDW    X,#0036AH
0008 89                                PUSHW  X
0009 5F                                CLRW   X
000A 89                                PUSHW  X
000B AE0000     F                      LDW    X,#HIGH(?STR?STM8S_CAN?BASE)
000E CD0000     F                      CALL   ?assert_failed
0011 5B04                              ADD    SP,#004H
0013         ?NXT_0127:
              ; SOURCE LINE # 875 
0013 7B01       F                      LD     A,(001H,SP)   ; [ CAN_DataIndex ]
0015 5F                                CLRW   X
0016 97                                LD     XL,A
0017 D60007     F                      LD     A,(_Data + 00H,X)
              ; SOURCE LINE # 876 
001A 5B01                              ADD    SP,#001H
001C 81                                RET    
              ; CAN_DataIndex unsigned char  (size=1).  parameter in AUTO

              ; FUNCTION ?CAN_GetReceivedData (END)

              ; FUNCTION ?CAN_GetReceivedFMI (BEGIN)
              ; SOURCE LINE # 888 
0000 C60000     F                      LD     A,_FMI
              ; SOURCE LINE # 889 
0003 81                                RET    

              ; FUNCTION ?CAN_GetReceivedFMI (END)

              ; FUNCTION ?CAN_GetMessageTimeStamp (BEGIN)
              ; SOURCE LINE # 896 
0000 5204                              SUB    SP,#004H
              ; SOURCE LINE # 899 
0002 CD0000     F                      CALL   ?CAN_GetSelectedPage
0005 1F03       F                      LDW    (003H,SP),X   ; [ can_page ]
              ; SOURCE LINE # 902 
0007 35075427                          MOV    05427H,#007H
              ; SOURCE LINE # 904 
000B C65436                            LD     A,05436H
000E 5F                                CLRW   X
000F 97                                LD     XL,A
0010 1F01       F                      LDW    (001H,SP),X   ; [ timestamp ]
              ; SOURCE LINE # 905 
0012 C65437                            LD     A,05437H
0015 97                                LD     XL,A
0016 4F                                CLR    A
0017 02                                RLWA   X,A
0018 7B02       F                      LD     A,(002H,SP)   ; [ timestamp + 01H ]
001A B704       F                      LD     ?BL,A
001C 9E                                LD     A,XH
001D 1A01       F                      OR     A,(001H,SP)   ; [ timestamp ]
001F B703       F                      LD     ?BH,A
0021 BE02       F                      LDW    X,?BH.w
0023 1F01       F                      LDW    (001H,SP),X   ; [ timestamp ]
              ; SOURCE LINE # 908 
0025 1E03       F                      LDW    X,(003H,SP)   ; [ can_page ]
0027 CD0000     F                      CALL   ?CAN_SelectPage
              ; SOURCE LINE # 910 
002A 1E01       F                      LDW    X,(001H,SP)   ; [ timestamp ]
              ; SOURCE LINE # 911 
002C 5B04                              ADD    SP,#004H
002E 81                                RET    
              ; timestamp    unsigned short  (size=2-Alg). Automatic variable  in AUTO
              ; can_page     (size=2). Automatic variable  in AUTO

              ; FUNCTION ?CAN_GetMessageTimeStamp (END)

              ; FUNCTION ?CAN_Sleep (BEGIN)
              ; SOURCE LINE # 921 
0000 5F                                CLRW   X
0001 89                                PUSHW  X
              ; SOURCE LINE # 924 
0002 C65420                            LD     A,05420H
0005 A4FE                              AND    A,#0FEH
0007 AA02                              OR     A,#002H
0009 C75420                            LD     05420H,A
              ; SOURCE LINE # 927 
000C A603                              LD     A,#003H
000E C45421                            AND    A,05421H
0011 A102                              CP     A,#002H
0013 2603                              JRNE   ?NXT_0129
              ; SOURCE LINE # 930 
0015 5C                                INCW   X
0016 1F01       F                      LDW    (001H,SP),X   ; [ sleepstatus ]
0018         ?NXT_0129:
              ; SOURCE LINE # 935 
0018 85                                POPW   X
0019 81                                RET    
              ; sleepstatus  (size=2). Automatic variable  in AUTO

              ; FUNCTION ?CAN_Sleep (END)

              ; FUNCTION ?CAN_WakeUp (BEGIN)
              ; SOURCE LINE # 944 
0000 5F                                CLRW   X
0001 89                                PUSHW  X
              ; SOURCE LINE # 947 
0002 72135420                          BRES   05420H,#001H
              ; SOURCE LINE # 950 
0006 7202542103                        BTJT   05421H,#001H,?NXT_0131
              ; SOURCE LINE # 953 
000B 5C                                INCW   X
000C 1F01       F                      LDW    (001H,SP),X   ; [ wakeupstatus ]
000E         ?NXT_0131:
              ; SOURCE LINE # 958 
000E 85                                POPW   X
000F 81                                RET    
              ; wakeupstatus (size=2). Automatic variable  in AUTO

              ; FUNCTION ?CAN_WakeUp (END)

              ; FUNCTION ?CAN_OperatingModeRequest (BEGIN)
              ; Register-parameter CAN_OperatingMode (XW) is relocated (AUTO)
              ; SOURCE LINE # 969 
0000 89                                PUSHW  X
0001 5203                              SUB    SP,#003H
              ; SOURCE LINE # 972 
0003 5F                                CLRW   X
0004 5A                                DECW   X
0005 1F01       F                      LDW    (001H,SP),X   ; [ timeout ]
              ; SOURCE LINE # 975 
0007 1E04       F                      LDW    X,(004H,SP)   ; [ CAN_OperatingMode ]
0009 2718                              JREQ   ?NXT_0143
000B 5A                                DECW   X
000C 2715                              JREQ   ?NXT_0143
000E AE0002                            LDW    X,#00002H
0011 1304       F                      CPW    X,(004H,SP)   ; [ CAN_OperatingMode ]
0013 270E                              JREQ   ?NXT_0143
0015 AE03CF                            LDW    X,#003CFH
0018 89                                PUSHW  X
0019 5F                                CLRW   X
001A 89                                PUSHW  X
001B AE0000     F                      LDW    X,#HIGH(?STR?STM8S_CAN?BASE)
001E CD0000     F                      CALL   ?assert_failed
0021 5B04                              ADD    SP,#004H
0023         ?NXT_0143:
              ; SOURCE LINE # 977 
0023 1E04       F                      LDW    X,(004H,SP)   ; [ CAN_OperatingMode ]
0025 262D                              JRNE   ?ELSE_0130
              ; SOURCE LINE # 980 
0027 C65420                            LD     A,05420H
002A A4FD                              AND    A,#0FDH
002C AA01                              OR     A,#001H
002E C75420                            LD     05420H,A
0031         ?WHILE_0007:
              ; SOURCE LINE # 983 
0031 A603                              LD     A,#003H
0033 C45421                            AND    A,05421H
0036 4A                                DEC    A
0037 2709                              JREQ   ?NXT_0145
0039 1E01       F                      LDW    X,(001H,SP)   ; [ timeout ]
003B 2705                              JREQ   ?NXT_0145
              ; SOURCE LINE # 985 
003D 5A                                DECW   X
003E 1F01       F                      LDW    (001H,SP),X   ; [ timeout ]
0040 20EF                              JRA    ?WHILE_0007
0042         ?NXT_0145:
              ; SOURCE LINE # 987 
0042 A603                              LD     A,#003H
0044 C45421                            AND    A,05421H
0047 4A                                DEC    A
0048 2704                              JREQ   ?ELSE_0131
              ; SOURCE LINE # 989 
004A 0F03       F                      CLR    (003H,SP)   ; [ modestatus ]
004C 206D                              JRA    ?NXT_0144
004E         ?ELSE_0131:
              ; SOURCE LINE # 993 
004E A601                              LD     A,#001H
0050 6B03       F                      LD     (003H,SP),A   ; [ modestatus ]
0052 2067                              JRA    ?NXT_0144
0054         ?ELSE_0130:
              ; SOURCE LINE # 997 
0054 5F                                CLRW   X
0055 5C                                INCW   X
0056 1304       F                      CPW    X,(004H,SP)   ; [ CAN_OperatingMode ]
0058 2629                              JRNE   ?ELSE_0132
              ; SOURCE LINE # 1000 
005A A6FC                              LD     A,#0FCH
005C C45420                            AND    A,05420H
005F C75420                            LD     05420H,A
0062         ?WHILE_0008:
              ; SOURCE LINE # 1003 
0062 A603                              LD     A,#003H
0064 C55421                            BCP    A,05421H
0067 2709                              JREQ   ?NXT_0148
0069 1E01       F                      LDW    X,(001H,SP)   ; [ timeout ]
006B 2705                              JREQ   ?NXT_0148
              ; SOURCE LINE # 1005 
006D 5A                                DECW   X
006E 1F01       F                      LDW    (001H,SP),X   ; [ timeout ]
0070 20F0                              JRA    ?WHILE_0008
0072         ?NXT_0148:
              ; SOURCE LINE # 1007 
0072 A603                              LD     A,#003H
0074 C55421                            BCP    A,05421H
0077 2704                              JREQ   ?ELSE_0133
              ; SOURCE LINE # 1009 
0079 0F03       F                      CLR    (003H,SP)   ; [ modestatus ]
007B 203E                              JRA    ?NXT_0144
007D         ?ELSE_0133:
              ; SOURCE LINE # 1013 
007D A601                              LD     A,#001H
007F 6B03       F                      LD     (003H,SP),A   ; [ modestatus ]
0081 2038                              JRA    ?NXT_0144
0083         ?ELSE_0132:
              ; SOURCE LINE # 1016 
0083 AE0002                            LDW    X,#00002H
0086 1304       F                      CPW    X,(004H,SP)   ; [ CAN_OperatingMode ]
0088 262F                              JRNE   ?ELSE_0134
              ; SOURCE LINE # 1019 
008A C65420                            LD     A,05420H
008D A4FE                              AND    A,#0FEH
008F AA02                              OR     A,#002H
0091 C75420                            LD     05420H,A
0094         ?WHILE_0009:
              ; SOURCE LINE # 1022 
0094 A603                              LD     A,#003H
0096 C45421                            AND    A,05421H
0099 A102                              CP     A,#002H
009B 2709                              JREQ   ?NXT_0152
009D 1E01       F                      LDW    X,(001H,SP)   ; [ timeout ]
009F 2705                              JREQ   ?NXT_0152
              ; SOURCE LINE # 1024 
00A1 5A                                DECW   X
00A2 1F01       F                      LDW    (001H,SP),X   ; [ timeout ]
00A4 20EE                              JRA    ?WHILE_0009
00A6         ?NXT_0152:
              ; SOURCE LINE # 1026 
00A6 A603                              LD     A,#003H
00A8 C45421                            AND    A,05421H
00AB A102                              CP     A,#002H
00AD 2704                              JREQ   ?ELSE_0135
              ; SOURCE LINE # 1028 
00AF 0F03       F                      CLR    (003H,SP)   ; [ modestatus ]
00B1 2008                              JRA    ?NXT_0144
00B3         ?ELSE_0135:
              ; SOURCE LINE # 1032 
00B3 A601                              LD     A,#001H
00B5 6B03       F                      LD     (003H,SP),A   ; [ modestatus ]
00B7 2002                              JRA    ?NXT_0144
00B9         ?ELSE_0134:
              ; SOURCE LINE # 1037 
00B9 0F03       F                      CLR    (003H,SP)   ; [ modestatus ]
00BB         ?NXT_0144:
              ; SOURCE LINE # 1039 
00BB 7B03       F                      LD     A,(003H,SP)   ; [ modestatus ]
00BD 5F                                CLRW   X
00BE 97                                LD     XL,A
              ; SOURCE LINE # 1040 
00BF 5B05                              ADD    SP,#005H
00C1 81                                RET    
              ; CAN_OperatingMode (size=2).  parameter in AUTO
              ; timeout      unsigned short  (size=2-Alg). Automatic variable  in AUTO
              ; modestatus   unsigned char  (size=1). Automatic variable  in AUTO

              ; FUNCTION ?CAN_OperatingModeRequest (END)

              ; FUNCTION ?CAN_GetLastErrorCode (BEGIN)
              ; SOURCE LINE # 1047 
0000 5204                              SUB    SP,#004H
              ; SOURCE LINE # 1050 
0002 CD0000     F                      CALL   ?CAN_GetSelectedPage
0005 1F03       F                      LDW    (003H,SP),X   ; [ can_page ]
              ; SOURCE LINE # 1052 
0007 35065427                          MOV    05427H,#006H
              ; SOURCE LINE # 1053 
000B C65428                            LD     A,05428H
000E A470                              AND    A,#070H
0010 5F                                CLRW   X
0011 97                                LD     XL,A
0012 1F01       F                      LDW    (001H,SP),X   ; [ errcode ]
              ; SOURCE LINE # 1056 
0014 1E03       F                      LDW    X,(003H,SP)   ; [ can_page ]
0016 CD0000     F                      CALL   ?CAN_SelectPage
              ; SOURCE LINE # 1058 
0019 1E01       F                      LDW    X,(001H,SP)   ; [ errcode ]
              ; SOURCE LINE # 1059 
001B 5B04                              ADD    SP,#004H
001D 81                                RET    
              ; errcode      (size=2). Automatic variable  in AUTO
              ; can_page     (size=2). Automatic variable  in AUTO

              ; FUNCTION ?CAN_GetLastErrorCode (END)

              ; FUNCTION ?CAN_ClearFlag (BEGIN)
              ; Register-parameter CAN_Flag (XW) is relocated (AUTO)
              ; SOURCE LINE # 1073 
0000 89                                PUSHW  X
              ; SOURCE LINE # 1075 
0001 5F                                CLRW   X
0002 89                                PUSHW  X
              ; SOURCE LINE # 1077 
0003 AE3401                            LDW    X,#03401H
0006 1303       F                      CPW    X,(003H,SP)   ; [ CAN_Flag ]
0008 2736                              JREQ   ?NXT_0161
000A 5C                                INCW   X
000B 1303       F                      CPW    X,(003H,SP)   ; [ CAN_Flag ]
000D 2731                              JREQ   ?NXT_0161
000F AE3404                            LDW    X,#03404H
0012 1303       F                      CPW    X,(003H,SP)   ; [ CAN_Flag ]
0014 272A                              JREQ   ?NXT_0161
0016 AE3208                            LDW    X,#03208H
0019 1303       F                      CPW    X,(003H,SP)   ; [ CAN_Flag ]
001B 2723                              JREQ   ?NXT_0161
001D AE3210                            LDW    X,#03210H
0020 1303       F                      CPW    X,(003H,SP)   ; [ CAN_Flag ]
0022 271C                              JREQ   ?NXT_0161
0024 AE3108                            LDW    X,#03108H
0027 1303       F                      CPW    X,(003H,SP)   ; [ CAN_Flag ]
0029 2715                              JREQ   ?NXT_0161
002B AE3070                            LDW    X,#03070H
002E 1303       F                      CPW    X,(003H,SP)   ; [ CAN_Flag ]
0030 270E                              JREQ   ?NXT_0161
0032 AE0435                            LDW    X,#00435H
0035 89                                PUSHW  X
0036 5F                                CLRW   X
0037 89                                PUSHW  X
0038 AE0000     F                      LDW    X,#HIGH(?STR?STM8S_CAN?BASE)
003B CD0000     F                      CALL   ?assert_failed
003E 5B04                              ADD    SP,#004H
0040         ?NXT_0161:
              ; SOURCE LINE # 1078 
0040 7B03       F                      LD     A,(003H,SP)   ; [ CAN_Flag ]
0042 A407                              AND    A,#007H
0044 B703       F                      LD     ?BH,A
0046 3F04       F                      CLR    ?BL
0048 BE02       F                      LDW    X,?BH.w
004A 2735                              JREQ   ?ELSE_0141
              ; SOURCE LINE # 1080 
004C 7B04       F                      LD     A,(004H,SP)   ; [ CAN_Flag + 01H ]
004E A40B                              AND    A,#00BH
0050 B704       F                      LD     ?BL,A
0052 7B03       F                      LD     A,(003H,SP)   ; [ CAN_Flag ]
0054 A402                              AND    A,#002H
0056 B703       F                      LD     ?BH,A
0058 BE02       F                      LDW    X,?BH.w
005A 2707                              JREQ   ?ELSE_0142
              ; SOURCE LINE # 1083 
005C 7B04       F                      LD     A,(004H,SP)   ; [ CAN_Flag + 01H ]
005E C75424                            LD     05424H,A
0061 202C                              JRA    ?EPILOG_0023
0063         ?ELSE_0142:
              ; SOURCE LINE # 1085 
0063 7B04       F                      LD     A,(004H,SP)   ; [ CAN_Flag + 01H ]
0065 A403                              AND    A,#003H
0067 B704       F                      LD     ?BL,A
0069 7B03       F                      LD     A,(003H,SP)   ; [ CAN_Flag ]
006B A404                              AND    A,#004H
006D B703       F                      LD     ?BH,A
006F BE02       F                      LDW    X,?BH.w
0071 2707                              JREQ   ?ELSE_0143
              ; SOURCE LINE # 1088 
0073 7B04       F                      LD     A,(004H,SP)   ; [ CAN_Flag + 01H ]
0075 C75422                            LD     05422H,A
0078 2015                              JRA    ?EPILOG_0023
007A         ?ELSE_0143:
              ; SOURCE LINE # 1093 
007A 7B04       F                      LD     A,(004H,SP)   ; [ CAN_Flag + 01H ]
007C C75421                            LD     05421H,A
007F 200E                              JRA    ?EPILOG_0023
0081         ?ELSE_0141:
              ; SOURCE LINE # 1099 
0081 CD0000     F                      CALL   ?CAN_GetSelectedPage
              ; SOURCE LINE # 1102 
0084 35065427                          MOV    05427H,#006H
              ; SOURCE LINE # 1103 
0088 725F5428                          CLR    05428H
              ; SOURCE LINE # 1106 
008C CD0000     F                      CALL   ?CAN_SelectPage
008F         ?EPILOG_0023:
              ; SOURCE LINE # 1108 
008F 5B04                              ADD    SP,#004H
0091 81                                RET    
              ; CAN_Flag     (size=2).  parameter in AUTO
              ; can_page     (size=2). Automatic variable  in AUTO

              ; FUNCTION ?CAN_ClearFlag (END)

              ; FUNCTION ?CAN_GetFlagStatus (BEGIN)
              ; Register-parameter CAN_Flag (XW) is relocated (AUTO)
              ; SOURCE LINE # 1115 
0000 89                                PUSHW  X
0001 5204                              SUB    SP,#004H
              ; SOURCE LINE # 1121 
0003 AE3401                            LDW    X,#03401H
0006 1305       F                      CPW    X,(005H,SP)   ; [ CAN_Flag ]
0008 2750                              JREQ   ?NXT_0183
000A 5C                                INCW   X
000B 1305       F                      CPW    X,(005H,SP)   ; [ CAN_Flag ]
000D 274B                              JREQ   ?NXT_0183
000F AE3404                            LDW    X,#03404H
0012 1305       F                      CPW    X,(005H,SP)   ; [ CAN_Flag ]
0014 2744                              JREQ   ?NXT_0183
0016 AE1203                            LDW    X,#01203H
0019 1305       F                      CPW    X,(005H,SP)   ; [ CAN_Flag ]
001B 273D                              JREQ   ?NXT_0183
001D AE3208                            LDW    X,#03208H
0020 1305       F                      CPW    X,(005H,SP)   ; [ CAN_Flag ]
0022 2736                              JREQ   ?NXT_0183
0024 AE3210                            LDW    X,#03210H
0027 1305       F                      CPW    X,(005H,SP)   ; [ CAN_Flag ]
0029 272F                              JREQ   ?NXT_0183
002B AE3108                            LDW    X,#03108H
002E 1305       F                      CPW    X,(005H,SP)   ; [ CAN_Flag ]
0030 2728                              JREQ   ?NXT_0183
0032 AE1001                            LDW    X,#01001H
0035 1305       F                      CPW    X,(005H,SP)   ; [ CAN_Flag ]
0037 2721                              JREQ   ?NXT_0183
0039 5C                                INCW   X
003A 1305       F                      CPW    X,(005H,SP)   ; [ CAN_Flag ]
003C 271C                              JREQ   ?NXT_0183
003E AE1004                            LDW    X,#01004H
0041 1305       F                      CPW    X,(005H,SP)   ; [ CAN_Flag ]
0043 2715                              JREQ   ?NXT_0183
0045 AE3070                            LDW    X,#03070H
0048 1305       F                      CPW    X,(005H,SP)   ; [ CAN_Flag ]
004A 270E                              JREQ   ?NXT_0183
004C AE0461                            LDW    X,#00461H
004F 89                                PUSHW  X
0050 5F                                CLRW   X
0051 89                                PUSHW  X
0052 AE0000     F                      LDW    X,#HIGH(?STR?STM8S_CAN?BASE)
0055 CD0000     F                      CALL   ?assert_failed
0058 5B04                              ADD    SP,#004H
005A         ?NXT_0183:
              ; SOURCE LINE # 1123 
005A 7B05       F                      LD     A,(005H,SP)   ; [ CAN_Flag ]
005C A407                              AND    A,#007H
005E B703       F                      LD     ?BH,A
0060 3F04       F                      CLR    ?BL
0062 BE02       F                      LDW    X,?BH.w
0064 2753                              JREQ   ?ELSE_0153
              ; SOURCE LINE # 1125 
0066 7B06       F                      LD     A,(006H,SP)   ; [ CAN_Flag + 01H ]
0068 A40B                              AND    A,#00BH
006A B704       F                      LD     ?BL,A
006C 7B05       F                      LD     A,(005H,SP)   ; [ CAN_Flag ]
006E A402                              AND    A,#002H
0070 B703       F                      LD     ?BH,A
0072 BE02       F                      LDW    X,?BH.w
0074 2711                              JREQ   ?ELSE_0154
              ; SOURCE LINE # 1128 
0076 7B06       F                      LD     A,(006H,SP)   ; [ CAN_Flag + 01H ]
0078 5F                                CLRW   X
0079 C55424                            BCP    A,05424H
007C 2705                              JREQ   ?ELSE_0155
              ; SOURCE LINE # 1131 
007E 5C                                INCW   X
007F 1F01       F                      LDW    (001H,SP),X   ; [ bitstatus ]
0081 204F                              JRA    ?NXT_0184
0083         ?ELSE_0155:
              ; SOURCE LINE # 1136 
0083 1F01       F                      LDW    (001H,SP),X   ; [ bitstatus ]
0085 204B                              JRA    ?NXT_0184
0087         ?ELSE_0154:
              ; SOURCE LINE # 1140 
0087 7B06       F                      LD     A,(006H,SP)   ; [ CAN_Flag + 01H ]
0089 A403                              AND    A,#003H
008B B704       F                      LD     ?BL,A
008D 7B05       F                      LD     A,(005H,SP)   ; [ CAN_Flag ]
008F A404                              AND    A,#004H
0091 B703       F                      LD     ?BH,A
0093 BE02       F                      LDW    X,?BH.w
0095 2711                              JREQ   ?ELSE_0156
              ; SOURCE LINE # 1143 
0097 7B06       F                      LD     A,(006H,SP)   ; [ CAN_Flag + 01H ]
0099 5F                                CLRW   X
009A C55422                            BCP    A,05422H
009D 2705                              JREQ   ?ELSE_0157
              ; SOURCE LINE # 1146 
009F 5C                                INCW   X
00A0 1F01       F                      LDW    (001H,SP),X   ; [ bitstatus ]
00A2 202E                              JRA    ?NXT_0184
00A4         ?ELSE_0157:
              ; SOURCE LINE # 1151 
00A4 1F01       F                      LDW    (001H,SP),X   ; [ bitstatus ]
00A6 202A                              JRA    ?NXT_0184
00A8         ?ELSE_0156:
              ; SOURCE LINE # 1157 
00A8 7B06       F                      LD     A,(006H,SP)   ; [ CAN_Flag + 01H ]
00AA 5F                                CLRW   X
00AB C55421                            BCP    A,05421H
00AE 2705                              JREQ   ?ELSE_0158
              ; SOURCE LINE # 1160 
00B0 5C                                INCW   X
00B1 1F01       F                      LDW    (001H,SP),X   ; [ bitstatus ]
00B3 201D                              JRA    ?NXT_0184
00B5         ?ELSE_0158:
              ; SOURCE LINE # 1165 
00B5 1F01       F                      LDW    (001H,SP),X   ; [ bitstatus ]
00B7 2019                              JRA    ?NXT_0184
00B9         ?ELSE_0153:
              ; SOURCE LINE # 1172 
00B9 CD0000     F                      CALL   ?CAN_GetSelectedPage
00BC 1F03       F                      LDW    (003H,SP),X   ; [ can_page ]
              ; SOURCE LINE # 1174 
00BE 35065427                          MOV    05427H,#006H
              ; SOURCE LINE # 1175 
00C2 7B06       F                      LD     A,(006H,SP)   ; [ CAN_Flag + 01H ]
00C4 5F                                CLRW   X
00C5 C55428                            BCP    A,05428H
00C8 2701                              JREQ   ?ELSE_0159
              ; SOURCE LINE # 1178 
00CA 5C                                INCW   X
00CB         ?ELSE_0159:
              ; SOURCE LINE # 1183 
00CB 1F01       F                      LDW    (001H,SP),X   ; [ bitstatus ]
              ; SOURCE LINE # 1186 
00CD 1E03       F                      LDW    X,(003H,SP)   ; [ can_page ]
00CF CD0000     F                      CALL   ?CAN_SelectPage
00D2         ?NXT_0184:
              ; SOURCE LINE # 1191 
00D2 1E01       F                      LDW    X,(001H,SP)   ; [ bitstatus ]
              ; SOURCE LINE # 1192 
00D4 5B06                              ADD    SP,#006H
00D6 81                                RET    
              ; CAN_Flag     (size=2).  parameter in AUTO
              ; bitstatus    (size=2). Automatic variable  in AUTO
              ; can_page     (size=2). Automatic variable  in AUTO

              ; FUNCTION ?CAN_GetFlagStatus (END)

              ; FUNCTION ?CAN_GetITStatus (BEGIN)
              ; Register-parameter CAN_IT (XW) is relocated (AUTO)
              ; SOURCE LINE # 1199 
0000 89                                PUSHW  X
0001 5204                              SUB    SP,#004H
              ; SOURCE LINE # 1201 
0003 5F                                CLRW   X
0004 1F01       F                      LDW    (001H,SP),X   ; [ pendingbitstatus ]
              ; SOURCE LINE # 1202 
0006 CD0000     F                      CALL   ?CAN_GetSelectedPage
0009 1F03       F                      LDW    (003H,SP),X   ; [ can_page ]
              ; SOURCE LINE # 1205 
000B 5F                                CLRW   X
000C 5C                                INCW   X
000D 1305       F                      CPW    X,(005H,SP)   ; [ CAN_IT ]
000F 274B                              JREQ   ?NXT_0210
0011 5C                                INCW   X
0012 1305       F                      CPW    X,(005H,SP)   ; [ CAN_IT ]
0014 2746                              JREQ   ?NXT_0210
0016 AE0004                            LDW    X,#00004H
0019 1305       F                      CPW    X,(005H,SP)   ; [ CAN_IT ]
001B 273F                              JREQ   ?NXT_0210
001D AE0008                            LDW    X,#00008H
0020 1305       F                      CPW    X,(005H,SP)   ; [ CAN_IT ]
0022 2738                              JREQ   ?NXT_0210
0024 AE0080                            LDW    X,#00080H
0027 1305       F                      CPW    X,(005H,SP)   ; [ CAN_IT ]
0029 2731                              JREQ   ?NXT_0210
002B AE4000                            LDW    X,#04000H
002E 1305       F                      CPW    X,(005H,SP)   ; [ CAN_IT ]
0030 272A                              JREQ   ?NXT_0210
0032 AE0100                            LDW    X,#00100H
0035 1305       F                      CPW    X,(005H,SP)   ; [ CAN_IT ]
0037 2723                              JREQ   ?NXT_0210
0039 AE0200                            LDW    X,#00200H
003C 1305       F                      CPW    X,(005H,SP)   ; [ CAN_IT ]
003E 271C                              JREQ   ?NXT_0210
0040 AE0400                            LDW    X,#00400H
0043 1305       F                      CPW    X,(005H,SP)   ; [ CAN_IT ]
0045 2715                              JREQ   ?NXT_0210
0047 AE0800                            LDW    X,#00800H
004A 1305       F                      CPW    X,(005H,SP)   ; [ CAN_IT ]
004C 270E                              JREQ   ?NXT_0210
004E AE04B5                            LDW    X,#004B5H
0051 89                                PUSHW  X
0052 5F                                CLRW   X
0053 89                                PUSHW  X
0054 AE0000     F                      LDW    X,#HIGH(?STR?STM8S_CAN?BASE)
0057 CD0000     F                      CALL   ?assert_failed
005A 5B04                              ADD    SP,#004H
005C         ?NXT_0210:
              ; SOURCE LINE # 1208 
005C 1E05       F                      LDW    X,(005H,SP)   ; [ CAN_IT ]
005E A30001                            CPW    X,#00001H
0061 274A                              JREQ   ?CASE_0024
0063 A30002                            CPW    X,#00002H
0066 275E                              JREQ   ?CASE_0025
0068 A30004                            CPW    X,#00004H
006B 276E                              JREQ   ?CASE_0026
006D A30008                            CPW    X,#00008H
0070 277E                              JREQ   ?CASE_0027
0072 A30080                            CPW    X,#00080H
0075 2603                              JRNE   ?LAB_0172
0077 CC0000     F                      JP     ?CASE_0028
007A         ?LAB_0172:
007A A30100                            CPW    X,#00100H
007D 2603                              JRNE   ?LAB_0167
007F CC0000     F                      JP     ?CASE_0029
0082         ?LAB_0167:
0082 A30200                            CPW    X,#00200H
0085 2603                              JRNE   ?LAB_0168
0087 CC0000     F                      JP     ?CASE_0030
008A         ?LAB_0168:
008A A30400                            CPW    X,#00400H
008D 2603                              JRNE   ?LAB_0169
008F CC0000     F                      JP     ?CASE_0031
0092         ?LAB_0169:
0092 A30800                            CPW    X,#00800H
0095 2603                              JRNE   ?LAB_0170
0097 CC0000     F                      JP     ?CASE_0032
009A         ?LAB_0170:
009A A34000                            CPW    X,#04000H
009D 2703                              JREQ   ?LAB_0171
009F CC0000     F                      JP     ?DEFAULT_0005
00A2         ?LAB_0171:
00A2 35065427                          MOV    05427H,#006H
00A6 720F54297B                        BTJF   05429H,#007H,?ELSE_0177
00AB 206C                              JRA    ?CASE_0033
00AD         ?CASE_0024:
              ; SOURCE LINE # 1211 
00AD 720154250E                        BTJF   05425H,#000H,?ELSE_0172
              ; SOURCE LINE # 1213 
00B2 4B07                              PUSH   #007H
00B4 C65422                            LD     A,05422H
00B7 CD0000     F                      CALL   ?CheckITStatus?STM8S_CAN?S
00BA 84                                POP    A
00BB 1F01       F                      LDW    (001H,SP),X   ; [ pendingbitstatus ]
00BD CC0000     F                      JP     ?NXT_0211
00C0         ?ELSE_0172:

00C0         ?OPTI_0012:
              ; SOURCE LINE # 1217 
00C0 5F                                CLRW   X
00C1 1F01       F                      LDW    (001H,SP),X   ; [ pendingbitstatus ]
              ; SOURCE LINE # 1219 
00C3 CC0000     F                      JP     ?NXT_0211
00C6         ?CASE_0025:
              ; SOURCE LINE # 1222 
00C6 720354250E                        BTJF   05425H,#001H,?ELSE_0173
              ; SOURCE LINE # 1224 
00CB 4B03                              PUSH   #003H
00CD C65424                            LD     A,05424H
00D0 CD0000     F                      CALL   ?CheckITStatus?STM8S_CAN?S
00D3 84                                POP    A
00D4 1F01       F                      LDW    (001H,SP),X   ; [ pendingbitstatus ]
00D6 CC0000     F                      JP     ?NXT_0211
00D9         ?ELSE_0173:
              ; SOURCE LINE # 1230 
00D9 20E5                              JRA    ?OPTI_0012
00DB         ?CASE_0026:
              ; SOURCE LINE # 1232 
00DB 720554250E                        BTJF   05425H,#002H,?ELSE_0174
              ; SOURCE LINE # 1234 
00E0 4B08                              PUSH   #008H
00E2 C65424                            LD     A,05424H
00E5 CD0000     F                      CALL   ?CheckITStatus?STM8S_CAN?S
00E8 84                                POP    A
00E9 1F01       F                      LDW    (001H,SP),X   ; [ pendingbitstatus ]
00EB CC0000     F                      JP     ?NXT_0211
00EE         ?ELSE_0174:
              ; SOURCE LINE # 1240 
00EE 20D0                              JRA    ?OPTI_0012
00F0         ?CASE_0027:
              ; SOURCE LINE # 1242 
00F0 720754250E                        BTJF   05425H,#003H,?ELSE_0175
              ; SOURCE LINE # 1244 
00F5 4B10                              PUSH   #010H
00F7 C65424                            LD     A,05424H
00FA CD0000     F                      CALL   ?CheckITStatus?STM8S_CAN?S
00FD 84                                POP    A
00FE 1F01       F                      LDW    (001H,SP),X   ; [ pendingbitstatus ]
0100 CC0000     F                      JP     ?NXT_0211
0103         ?ELSE_0175:
              ; SOURCE LINE # 1250 
0103 20BB                              JRA    ?OPTI_0012
0105         ?CASE_0028:
              ; SOURCE LINE # 1252 
0105 720F54250D                        BTJF   05425H,#007H,?ELSE_0176
              ; SOURCE LINE # 1254 
010A 4B08                              PUSH   #008H
010C C65421                            LD     A,05421H
010F CD0000     F                      CALL   ?CheckITStatus?STM8S_CAN?S
0112 84                                POP    A
0113 1F01       F                      LDW    (001H,SP),X   ; [ pendingbitstatus ]
0115 2077                              JRA    ?NXT_0211
0117         ?ELSE_0176:
              ; SOURCE LINE # 1260 
0117 20A7                              JRA    ?OPTI_0012
0119         ?CASE_0033:
              ; SOURCE LINE # 1266 
0119 4B77                              PUSH   #077H
011B C65428                            LD     A,05428H
011E CD0000     F                      CALL   ?CheckITStatus?STM8S_CAN?S
0121 84                                POP    A
0122 1F01       F                      LDW    (001H,SP),X   ; [ pendingbitstatus ]
0124 2068                              JRA    ?NXT_0211
0126         ?ELSE_0177:
              ; SOURCE LINE # 1272 
0126 2098                              JRA    ?OPTI_0012
0128         ?CASE_0029:
              ; SOURCE LINE # 1275 
0128 35065427                          MOV    05427H,#006H
              ; SOURCE LINE # 1276 
012C 720154290D                        BTJF   05429H,#000H,?ELSE_0178
              ; SOURCE LINE # 1278 
0131 4B01                              PUSH   #001H
0133 C65428                            LD     A,05428H
0136 CD0000     F                      CALL   ?CheckITStatus?STM8S_CAN?S
0139 84                                POP    A
013A 1F01       F                      LDW    (001H,SP),X   ; [ pendingbitstatus ]
013C 2050                              JRA    ?NXT_0211
013E         ?ELSE_0178:
              ; SOURCE LINE # 1284 
013E 2080                              JRA    ?OPTI_0012
0140         ?CASE_0030:
              ; SOURCE LINE # 1287 
0140 35065427                          MOV    05427H,#006H
              ; SOURCE LINE # 1288 
0144 720354290D                        BTJF   05429H,#001H,?ELSE_0179
              ; SOURCE LINE # 1290 
0149 4B02                              PUSH   #002H
014B C65428                            LD     A,05428H
014E CD0000     F                      CALL   ?CheckITStatus?STM8S_CAN?S
0151 84                                POP    A
0152 1F01       F                      LDW    (001H,SP),X   ; [ pendingbitstatus ]
0154 2038                              JRA    ?NXT_0211
0156         ?ELSE_0179:
              ; SOURCE LINE # 1296 
0156 CC0000     F                      JP     ?OPTI_0012
0159         ?CASE_0031:
              ; SOURCE LINE # 1298 
0159 35065427                          MOV    05427H,#006H
              ; SOURCE LINE # 1299 
015D 720554290D                        BTJF   05429H,#002H,?ELSE_0180
              ; SOURCE LINE # 1301 
0162 4B04                              PUSH   #004H
0164 C65428                            LD     A,05428H
0167 CD0000     F                      CALL   ?CheckITStatus?STM8S_CAN?S
016A 84                                POP    A
016B 1F01       F                      LDW    (001H,SP),X   ; [ pendingbitstatus ]
016D 201F                              JRA    ?NXT_0211
016F         ?ELSE_0180:
              ; SOURCE LINE # 1307 
016F CC0000     F                      JP     ?OPTI_0012
0172         ?CASE_0032:
              ; SOURCE LINE # 1309 
0172 35065427                          MOV    05427H,#006H
              ; SOURCE LINE # 1310 
0176 720954290D                        BTJF   05429H,#004H,?ELSE_0181
              ; SOURCE LINE # 1312 
017B 4B70                              PUSH   #070H
017D C65428                            LD     A,05428H
0180 CD0000     F                      CALL   ?CheckITStatus?STM8S_CAN?S
0183 84                                POP    A
0184 1F01       F                      LDW    (001H,SP),X   ; [ pendingbitstatus ]
0186 2006                              JRA    ?NXT_0211
0188         ?ELSE_0181:
              ; SOURCE LINE # 1318 
0188 CC0000     F                      JP     ?OPTI_0012
018B         ?DEFAULT_0005:
              ; SOURCE LINE # 1320 
018B 5F                                CLRW   X
018C 1F01       F                      LDW    (001H,SP),X   ; [ pendingbitstatus ]
018E         ?NXT_0211:
              ; SOURCE LINE # 1324 
018E 1E03       F                      LDW    X,(003H,SP)   ; [ can_page ]
0190 CD0000     F                      CALL   ?CAN_SelectPage
              ; SOURCE LINE # 1326 
0193 1E01       F                      LDW    X,(001H,SP)   ; [ pendingbitstatus ]
              ; SOURCE LINE # 1327 
0195 5B06                              ADD    SP,#006H
0197 81                                RET    
              ; CAN_IT       (size=2).  parameter in AUTO
              ; pendingbitstatus (size=2). Automatic variable  in AUTO
              ; can_page     (size=2). Automatic variable  in AUTO

              ; FUNCTION ?CAN_GetITStatus (END)

              ; FUNCTION ?CAN_ClearITPendingBit (BEGIN)
              ; Register-parameter CAN_IT (XW) is relocated (AUTO)
              ; SOURCE LINE # 1344 
0000 89                                PUSHW  X
0001 89                                PUSHW  X
              ; SOURCE LINE # 1346 
0002 CD0000     F                      CALL   ?CAN_GetSelectedPage
0005 1F01       F                      LDW    (001H,SP),X   ; [ can_page ]
              ; SOURCE LINE # 1348 
0007 5F                                CLRW   X
0008 5C                                INCW   X
0009 1303       F                      CPW    X,(003H,SP)   ; [ CAN_IT ]
000B 2746                              JREQ   ?NXT_0224
000D AE0004                            LDW    X,#00004H
0010 1303       F                      CPW    X,(003H,SP)   ; [ CAN_IT ]
0012 273F                              JREQ   ?NXT_0224
0014 AE0008                            LDW    X,#00008H
0017 1303       F                      CPW    X,(003H,SP)   ; [ CAN_IT ]
0019 2738                              JREQ   ?NXT_0224
001B AE0080                            LDW    X,#00080H
001E 1303       F                      CPW    X,(003H,SP)   ; [ CAN_IT ]
0020 2731                              JREQ   ?NXT_0224
0022 AE4000                            LDW    X,#04000H
0025 1303       F                      CPW    X,(003H,SP)   ; [ CAN_IT ]
0027 272A                              JREQ   ?NXT_0224
0029 AE0100                            LDW    X,#00100H
002C 1303       F                      CPW    X,(003H,SP)   ; [ CAN_IT ]
002E 2723                              JREQ   ?NXT_0224
0030 AE0200                            LDW    X,#00200H
0033 1303       F                      CPW    X,(003H,SP)   ; [ CAN_IT ]
0035 271C                              JREQ   ?NXT_0224
0037 AE0400                            LDW    X,#00400H
003A 1303       F                      CPW    X,(003H,SP)   ; [ CAN_IT ]
003C 2715                              JREQ   ?NXT_0224
003E AE0800                            LDW    X,#00800H
0041 1303       F                      CPW    X,(003H,SP)   ; [ CAN_IT ]
0043 270E                              JREQ   ?NXT_0224
0045 AE0544                            LDW    X,#00544H
0048 89                                PUSHW  X
0049 5F                                CLRW   X
004A 89                                PUSHW  X
004B AE0000     F                      LDW    X,#HIGH(?STR?STM8S_CAN?BASE)
004E CD0000     F                      CALL   ?assert_failed
0051 5B04                              ADD    SP,#004H
0053         ?NXT_0224:
              ; SOURCE LINE # 1350 
0053 1E03       F                      LDW    X,(003H,SP)   ; [ CAN_IT ]
0055 A30001                            CPW    X,#00001H
0058 2732                              JREQ   ?CASE_0043
005A A30004                            CPW    X,#00004H
005D 2733                              JREQ   ?CASE_0044
005F A30008                            CPW    X,#00008H
0062 2734                              JREQ   ?CASE_0045
0064 A30080                            CPW    X,#00080H
0067 2735                              JREQ   ?CASE_0046
0069 A30100                            CPW    X,#00100H
006C 2736                              JREQ   ?OPTI_0015
006E A30200                            CPW    X,#00200H
0071 2731                              JREQ   ?OPTI_0015
0073 A30400                            CPW    X,#00400H
0076 272C                              JREQ   ?OPTI_0015
0078 A30800                            CPW    X,#00800H
007B 272D                              JREQ   ?CASE_0050
007D A34000                            CPW    X,#04000H
0080 2630                              JRNE   ?NXT_0225
0082 35065427                          MOV    05427H,#006H
0086 725F5428                          CLR    05428H
008A 2018                              JRA    ?CASE_0051
008C         ?CASE_0043:
              ; SOURCE LINE # 1353 
008C 35075422                          MOV    05422H,#007H
              ; SOURCE LINE # 1354 
0090 2020                              JRA    ?NXT_0225
0092         ?CASE_0044:
              ; SOURCE LINE # 1357 
0092 35085424                          MOV    05424H,#008H
              ; SOURCE LINE # 1358 
0096 201A                              JRA    ?NXT_0225
0098         ?CASE_0045:
              ; SOURCE LINE # 1361 
0098 35105424                          MOV    05424H,#010H
              ; SOURCE LINE # 1362 
009C 2014                              JRA    ?NXT_0225
009E         ?CASE_0046:
              ; SOURCE LINE # 1365 
009E 35085421                          MOV    05421H,#008H
              ; SOURCE LINE # 1366 
00A2 200E                              JRA    ?NXT_0225
00A4         ?CASE_0051:

00A4         ?OPTI_0015:
              ; SOURCE LINE # 1371 
00A4 35045421                          MOV    05421H,#004H
              ; SOURCE LINE # 1372 
00A8 2008                              JRA    ?NXT_0225
00AA         ?CASE_0050:
              ; SOURCE LINE # 1387 
00AA 35065427                          MOV    05427H,#006H
              ; SOURCE LINE # 1388 
00AE 725F5428                          CLR    05428H
00B2         ?NXT_0225:
              ; SOURCE LINE # 1397 
00B2 1E01       F                      LDW    X,(001H,SP)   ; [ can_page ]
00B4 CD0000     F                      CALL   ?CAN_SelectPage
              ; SOURCE LINE # 1398 
00B7 5B04                              ADD    SP,#004H
00B9 81                                RET    
              ; CAN_IT       (size=2).  parameter in AUTO
              ; can_page     (size=2). Automatic variable  in AUTO

              ; FUNCTION ?CAN_ClearITPendingBit (END)

              ; FUNCTION ?CAN_GetSelectedPage (BEGIN)
              ; SOURCE LINE # 1407 
0000 C65427                            LD     A,05427H
0003 5F                                CLRW   X
0004 97                                LD     XL,A
              ; SOURCE LINE # 1408 
0005 81                                RET    

              ; FUNCTION ?CAN_GetSelectedPage (END)

              ; FUNCTION ?CAN_SelectPage (BEGIN)
              ; Register XW is assigned to parameter CAN_Page
              ; SOURCE LINE # 1417 
0000 9F                                LD     A,XL
0001 C75427                            LD     05427H,A
              ; SOURCE LINE # 1418 
0004 81                                RET    
              ; CAN_Page     (size=2). Register parameter(XW) in PAGE0

              ; FUNCTION ?CAN_SelectPage (END)

              ; FUNCTION ?CheckITStatus?STM8S_CAN?S (BEGIN)
              ; Register-parameter CAN_Reg (A) is relocated (AUTO)
              ; SOURCE LINE # 1426 
0000 88                                PUSH   A
              ; SOURCE LINE # 1428 
0001 5F                                CLRW   X
0002 89                                PUSHW  X
              ; SOURCE LINE # 1429 
0003 7B06       F                      LD     A,(006H,SP)   ; [ It_Bit ]
0005 1503       F                      BCP    A,(003H,SP)   ; [ CAN_Reg ]
0007 2703                              JREQ   ?ELSE_0185
              ; SOURCE LINE # 1432 
0009 5C                                INCW   X
000A 2001                              JRA    ?NXT_0228
000C         ?ELSE_0185:
              ; SOURCE LINE # 1437 
000C 5F                                CLRW   X
000D         ?NXT_0228:
              ; SOURCE LINE # 1440 
000D 5B03                              ADD    SP,#003H
000F 81                                RET    
              ; CAN_Reg      unsigned char  (size=1).  parameter in AUTO
              ; It_Bit       unsigned char  (size=1).  parameter in AUTO
              ; pendingbitstatus (size=2). Automatic variable  in AUTO

              ; FUNCTION ?CheckITStatus?STM8S_CAN?S (END)

RCSTM8 COMPILER V2.44.12.199
NAME                                    CLASS   MSPACE  TYPE    OFFSET  SIZE
====                                    =====   ======  ====    ======  ====

int8_t . . . . . . . . . . . . . . . .  TYPEDEF ------- ????? -------      1
int16_t. . . . . . . . . . . . . . . .  TYPEDEF ------- INT      -------     2
int32_t. . . . . . . . . . . . . . . .  TYPEDEF ------- LONG     -------     4
uint8_t. . . . . . . . . . . . . . . .  TYPEDEF ------- U_CHAR  -------     1
uint16_t . . . . . . . . . . . . . . .  TYPEDEF ------- U_CHAR  -------     2
uint32_t . . . . . . . . . . . . . . .  TYPEDEF ------- ????? -------      4
s32. . . . . . . . . . . . . . . . . .  TYPEDEF ------- LONG     -------     4
s16. . . . . . . . . . . . . . . . . .  TYPEDEF ------- INT      -------     2
s8 . . . . . . . . . . . . . . . . . .  TYPEDEF ------- ????? -------      1
u32. . . . . . . . . . . . . . . . . .  TYPEDEF ------- ????? -------      4
u16. . . . . . . . . . . . . . . . . .  TYPEDEF ------- U_CHAR  -------     2
u8 . . . . . . . . . . . . . . . . . .  TYPEDEF ------- U_CHAR  -------     1
FALSE. . . . . . . . . . . . . . . . . E_CONST  ----- INT      -------  2
TRUE . . . . . . . . . . . . . . . . . E_CONST  ----- INT      -------  2
bool . . . . . . . . . . . . . . . . .  TYPEDEF ------- INT   -------     2
RESET. . . . . . . . . . . . . . . . . E_CONST  ----- INT      -------  2
SET. . . . . . . . . . . . . . . . . . E_CONST  ----- INT      -------  2
FlagStatus . . . . . . . . . . . . . .  TYPEDEF ------- INT   -------     2
ITStatus . . . . . . . . . . . . . . .  TYPEDEF ------- INT   -------     2
BitStatus. . . . . . . . . . . . . . .  TYPEDEF ------- INT   -------     2
BitAction. . . . . . . . . . . . . . .  TYPEDEF ------- INT   -------     2
DISABLE. . . . . . . . . . . . . . . . E_CONST  ----- INT      -------  2
ENABLE . . . . . . . . . . . . . . . . E_CONST  ----- INT      -------  2
FunctionalState. . . . . . . . . . . .  TYPEDEF ------- INT   -------     2
ERROR. . . . . . . . . . . . . . . . . E_CONST  ----- INT      -------  2
SUCCESS. . . . . . . . . . . . . . . . E_CONST  ----- INT      -------  2
ErrorStatus. . . . . . . . . . . . . .  TYPEDEF ------- INT   -------     2
GPIO_struct. . . . . . . . . . . . . . * TAG *  ----- STRUCT  -------     5
  ODR. . . . . . . . . . . . . . . . .  MEMBER  -----   U_CHAR  000000H     1
  IDR. . . . . . . . . . . . . . . . .  MEMBER  -----   U_CHAR  000001H     1
  DDR. . . . . . . . . . . . . . . . .  MEMBER  -----   U_CHAR  000002H     1
  CR1. . . . . . . . . . . . . . . . .  MEMBER  -----   U_CHAR  000003H     1
  CR2. . . . . . . . . . . . . . . . .  MEMBER  -----   U_CHAR  000004H     1
GPIO_TypeDef . . . . . . . . . . . . .  TYPEDEF ------- STRUCT   -------     5
  ODR. . . . . . . . . . . . . . . . .  MEMBER  -----   U_CHAR  000000H     1
  IDR. . . . . . . . . . . . . . . . .  MEMBER  -----   U_CHAR  000001H     1
  DDR. . . . . . . . . . . . . . . . .  MEMBER  -----   U_CHAR  000002H     1
  CR1. . . . . . . . . . . . . . . . .  MEMBER  -----   U_CHAR  000003H     1
  CR2. . . . . . . . . . . . . . . . .  MEMBER  -----   U_CHAR  000004H     1
ADC2_struct. . . . . . . . . . . . . . * TAG *  ----- STRUCT  -------     8
  CSR. . . . . . . . . . . . . . . . .  MEMBER  -----   U_CHAR  000000H     1
  CR1. . . . . . . . . . . . . . . . .  MEMBER  -----   U_CHAR  000001H     1
  CR2. . . . . . . . . . . . . . . . .  MEMBER  -----   U_CHAR  000002H     1
  RESERVED . . . . . . . . . . . . . .  MEMBER  -----   U_CHAR  000003H     1
  DRH. . . . . . . . . . . . . . . . .  MEMBER  -----   U_CHAR  000004H     1
  DRL. . . . . . . . . . . . . . . . .  MEMBER  -----   U_CHAR  000005H     1
  TDRH . . . . . . . . . . . . . . . .  MEMBER  -----   U_CHAR  000006H     1
  TDRL . . . . . . . . . . . . . . . .  MEMBER  -----   U_CHAR  000007H     1
ADC2_TypeDef . . . . . . . . . . . . .  TYPEDEF ------- STRUCT   -------     8
  CSR. . . . . . . . . . . . . . . . .  MEMBER  -----   U_CHAR  000000H     1
  CR1. . . . . . . . . . . . . . . . .  MEMBER  -----   U_CHAR  000001H     1
  CR2. . . . . . . . . . . . . . . . .  MEMBER  -----   U_CHAR  000002H     1
  RESERVED . . . . . . . . . . . . . .  MEMBER  -----   U_CHAR  000003H     1
  DRH. . . . . . . . . . . . . . . . .  MEMBER  -----   U_CHAR  000004H     1
  DRL. . . . . . . . . . . . . . . . .  MEMBER  -----   U_CHAR  000005H     1
  TDRH . . . . . . . . . . . . . . . .  MEMBER  -----   U_CHAR  000006H     1
  TDRL . . . . . . . . . . . . . . . .  MEMBER  -----   U_CHAR  000007H     1
AWU_struct . . . . . . . . . . . . . . * TAG *  ----- STRUCT  -------     3
  CSR. . . . . . . . . . . . . . . . .  MEMBER  -----   U_CHAR  000000H     1
  APR. . . . . . . . . . . . . . . . .  MEMBER  -----   U_CHAR  000001H     1
  TBR. . . . . . . . . . . . . . . . .  MEMBER  -----   U_CHAR  000002H     1
AWU_TypeDef. . . . . . . . . . . . . .  TYPEDEF ------- STRUCT   -------     3
  CSR. . . . . . . . . . . . . . . . .  MEMBER  -----   U_CHAR  000000H     1
  APR. . . . . . . . . . . . . . . . .  MEMBER  -----   U_CHAR  000001H     1
  TBR. . . . . . . . . . . . . . . . .  MEMBER  -----   U_CHAR  000002H     1
BEEP_struct. . . . . . . . . . . . . . * TAG *  ----- STRUCT  -------     1
  CSR. . . . . . . . . . . . . . . . .  MEMBER  -----   U_CHAR  000000H     1
BEEP_TypeDef . . . . . . . . . . . . .  TYPEDEF ------- STRUCT   -------     1
  CSR. . . . . . . . . . . . . . . . .  MEMBER  -----   U_CHAR  000000H     1
CLK_struct . . . . . . . . . . . . . . * TAG *  ----- STRUCT  -------    14
  ICKR . . . . . . . . . . . . . . . .  MEMBER  -----   U_CHAR  000000H     1
  ECKR . . . . . . . . . . . . . . . .  MEMBER  -----   U_CHAR  000001H     1
  RESERVED . . . . . . . . . . . . . .  MEMBER  -----   U_CHAR  000002H     1
  CMSR . . . . . . . . . . . . . . . .  MEMBER  -----   U_CHAR  000003H     1
  SWR. . . . . . . . . . . . . . . . .  MEMBER  -----   U_CHAR  000004H     1
  SWCR . . . . . . . . . . . . . . . .  MEMBER  -----   U_CHAR  000005H     1
  CKDIVR . . . . . . . . . . . . . . .  MEMBER  -----   U_CHAR  000006H     1
  PCKENR1. . . . . . . . . . . . . . .  MEMBER  -----   U_CHAR  000007H     1
  CSSR . . . . . . . . . . . . . . . .  MEMBER  -----   U_CHAR  000008H     1
  CCOR . . . . . . . . . . . . . . . .  MEMBER  -----   U_CHAR  000009H     1
  PCKENR2. . . . . . . . . . . . . . .  MEMBER  -----   U_CHAR  00000AH     1
  RESERVED1. . . . . . . . . . . . . .  MEMBER  -----   U_CHAR  00000BH     1
  HSITRIMR . . . . . . . . . . . . . .  MEMBER  -----   U_CHAR  00000CH     1
  SWIMCCR. . . . . . . . . . . . . . .  MEMBER  -----   U_CHAR  00000DH     1
CLK_TypeDef. . . . . . . . . . . . . .  TYPEDEF ------- STRUCT   -------    14
  ICKR . . . . . . . . . . . . . . . .  MEMBER  -----   U_CHAR  000000H     1
  ECKR . . . . . . . . . . . . . . . .  MEMBER  -----   U_CHAR  000001H     1
  RESERVED . . . . . . . . . . . . . .  MEMBER  -----   U_CHAR  000002H     1
  CMSR . . . . . . . . . . . . . . . .  MEMBER  -----   U_CHAR  000003H     1
  SWR. . . . . . . . . . . . . . . . .  MEMBER  -----   U_CHAR  000004H     1
  SWCR . . . . . . . . . . . . . . . .  MEMBER  -----   U_CHAR  000005H     1
  CKDIVR . . . . . . . . . . . . . . .  MEMBER  -----   U_CHAR  000006H     1
  PCKENR1. . . . . . . . . . . . . . .  MEMBER  -----   U_CHAR  000007H     1
  CSSR . . . . . . . . . . . . . . . .  MEMBER  -----   U_CHAR  000008H     1
  CCOR . . . . . . . . . . . . . . . .  MEMBER  -----   U_CHAR  000009H     1
  PCKENR2. . . . . . . . . . . . . . .  MEMBER  -----   U_CHAR  00000AH     1
  RESERVED1. . . . . . . . . . . . . .  MEMBER  -----   U_CHAR  00000BH     1
  HSITRIMR . . . . . . . . . . . . . .  MEMBER  -----   U_CHAR  00000CH     1
  SWIMCCR. . . . . . . . . . . . . . .  MEMBER  -----   U_CHAR  00000DH     1
TIM1_struct. . . . . . . . . . . . . . * TAG *  ----- STRUCT  -------    32
  CR1. . . . . . . . . . . . . . . . .  MEMBER  -----   U_CHAR  000000H     1
  CR2. . . . . . . . . . . . . . . . .  MEMBER  -----   U_CHAR  000001H     1
  SMCR . . . . . . . . . . . . . . . .  MEMBER  -----   U_CHAR  000002H     1
  ETR. . . . . . . . . . . . . . . . .  MEMBER  -----   U_CHAR  000003H     1
  IER. . . . . . . . . . . . . . . . .  MEMBER  -----   U_CHAR  000004H     1
  SR1. . . . . . . . . . . . . . . . .  MEMBER  -----   U_CHAR  000005H     1
  SR2. . . . . . . . . . . . . . . . .  MEMBER  -----   U_CHAR  000006H     1
  EGR. . . . . . . . . . . . . . . . .  MEMBER  -----   U_CHAR  000007H     1
  CCMR1. . . . . . . . . . . . . . . .  MEMBER  -----   U_CHAR  000008H     1
  CCMR2. . . . . . . . . . . . . . . .  MEMBER  -----   U_CHAR  000009H     1
  CCMR3. . . . . . . . . . . . . . . .  MEMBER  -----   U_CHAR  00000AH     1
  CCMR4. . . . . . . . . . . . . . . .  MEMBER  -----   U_CHAR  00000BH     1
  CCER1. . . . . . . . . . . . . . . .  MEMBER  -----   U_CHAR  00000CH     1
  CCER2. . . . . . . . . . . . . . . .  MEMBER  -----   U_CHAR  00000DH     1
  CNTRH. . . . . . . . . . . . . . . .  MEMBER  -----   U_CHAR  00000EH     1
  CNTRL. . . . . . . . . . . . . . . .  MEMBER  -----   U_CHAR  00000FH     1
  PSCRH. . . . . . . . . . . . . . . .  MEMBER  -----   U_CHAR  000010H     1
  PSCRL. . . . . . . . . . . . . . . .  MEMBER  -----   U_CHAR  000011H     1
  ARRH . . . . . . . . . . . . . . . .  MEMBER  -----   U_CHAR  000012H     1
  ARRL . . . . . . . . . . . . . . . .  MEMBER  -----   U_CHAR  000013H     1
  RCR. . . . . . . . . . . . . . . . .  MEMBER  -----   U_CHAR  000014H     1
  CCR1H. . . . . . . . . . . . . . . .  MEMBER  -----   U_CHAR  000015H     1
  CCR1L. . . . . . . . . . . . . . . .  MEMBER  -----   U_CHAR  000016H     1
  CCR2H. . . . . . . . . . . . . . . .  MEMBER  -----   U_CHAR  000017H     1
  CCR2L. . . . . . . . . . . . . . . .  MEMBER  -----   U_CHAR  000018H     1
  CCR3H. . . . . . . . . . . . . . . .  MEMBER  -----   U_CHAR  000019H     1
  CCR3L. . . . . . . . . . . . . . . .  MEMBER  -----   U_CHAR  00001AH     1
  CCR4H. . . . . . . . . . . . . . . .  MEMBER  -----   U_CHAR  00001BH     1
  CCR4L. . . . . . . . . . . . . . . .  MEMBER  -----   U_CHAR  00001CH     1
  BKR. . . . . . . . . . . . . . . . .  MEMBER  -----   U_CHAR  00001DH     1
  DTR. . . . . . . . . . . . . . . . .  MEMBER  -----   U_CHAR  00001EH     1
  OISR . . . . . . . . . . . . . . . .  MEMBER  -----   U_CHAR  00001FH     1
TIM1_TypeDef . . . . . . . . . . . . .  TYPEDEF ------- STRUCT   -------    32
  CR1. . . . . . . . . . . . . . . . .  MEMBER  -----   U_CHAR  000000H     1
  CR2. . . . . . . . . . . . . . . . .  MEMBER  -----   U_CHAR  000001H     1
  SMCR . . . . . . . . . . . . . . . .  MEMBER  -----   U_CHAR  000002H     1
  ETR. . . . . . . . . . . . . . . . .  MEMBER  -----   U_CHAR  000003H     1
  IER. . . . . . . . . . . . . . . . .  MEMBER  -----   U_CHAR  000004H     1
  SR1. . . . . . . . . . . . . . . . .  MEMBER  -----   U_CHAR  000005H     1
  SR2. . . . . . . . . . . . . . . . .  MEMBER  -----   U_CHAR  000006H     1
  EGR. . . . . . . . . . . . . . . . .  MEMBER  -----   U_CHAR  000007H     1
  CCMR1. . . . . . . . . . . . . . . .  MEMBER  -----   U_CHAR  000008H     1
  CCMR2. . . . . . . . . . . . . . . .  MEMBER  -----   U_CHAR  000009H     1
  CCMR3. . . . . . . . . . . . . . . .  MEMBER  -----   U_CHAR  00000AH     1
  CCMR4. . . . . . . . . . . . . . . .  MEMBER  -----   U_CHAR  00000BH     1
  CCER1. . . . . . . . . . . . . . . .  MEMBER  -----   U_CHAR  00000CH     1
  CCER2. . . . . . . . . . . . . . . .  MEMBER  -----   U_CHAR  00000DH     1
  CNTRH. . . . . . . . . . . . . . . .  MEMBER  -----   U_CHAR  00000EH     1
  CNTRL. . . . . . . . . . . . . . . .  MEMBER  -----   U_CHAR  00000FH     1
  PSCRH. . . . . . . . . . . . . . . .  MEMBER  -----   U_CHAR  000010H     1
  PSCRL. . . . . . . . . . . . . . . .  MEMBER  -----   U_CHAR  000011H     1
  ARRH . . . . . . . . . . . . . . . .  MEMBER  -----   U_CHAR  000012H     1
  ARRL . . . . . . . . . . . . . . . .  MEMBER  -----   U_CHAR  000013H     1
  RCR. . . . . . . . . . . . . . . . .  MEMBER  -----   U_CHAR  000014H     1
  CCR1H. . . . . . . . . . . . . . . .  MEMBER  -----   U_CHAR  000015H     1
  CCR1L. . . . . . . . . . . . . . . .  MEMBER  -----   U_CHAR  000016H     1
  CCR2H. . . . . . . . . . . . . . . .  MEMBER  -----   U_CHAR  000017H     1
  CCR2L. . . . . . . . . . . . . . . .  MEMBER  -----   U_CHAR  000018H     1
  CCR3H. . . . . . . . . . . . . . . .  MEMBER  -----   U_CHAR  000019H     1
  CCR3L. . . . . . . . . . . . . . . .  MEMBER  -----   U_CHAR  00001AH     1
  CCR4H. . . . . . . . . . . . . . . .  MEMBER  -----   U_CHAR  00001BH     1
  CCR4L. . . . . . . . . . . . . . . .  MEMBER  -----   U_CHAR  00001CH     1
  BKR. . . . . . . . . . . . . . . . .  MEMBER  -----   U_CHAR  00001DH     1
  DTR. . . . . . . . . . . . . . . . .  MEMBER  -----   U_CHAR  00001EH     1
  OISR . . . . . . . . . . . . . . . .  MEMBER  -----   U_CHAR  00001FH     1
TIM2_struct. . . . . . . . . . . . . . * TAG *  ----- STRUCT  -------    21
  CR1. . . . . . . . . . . . . . . . .  MEMBER  -----   U_CHAR  000000H     1
  IER. . . . . . . . . . . . . . . . .  MEMBER  -----   U_CHAR  000001H     1
  SR1. . . . . . . . . . . . . . . . .  MEMBER  -----   U_CHAR  000002H     1
  SR2. . . . . . . . . . . . . . . . .  MEMBER  -----   U_CHAR  000003H     1
  EGR. . . . . . . . . . . . . . . . .  MEMBER  -----   U_CHAR  000004H     1
  CCMR1. . . . . . . . . . . . . . . .  MEMBER  -----   U_CHAR  000005H     1
  CCMR2. . . . . . . . . . . . . . . .  MEMBER  -----   U_CHAR  000006H     1
  CCMR3. . . . . . . . . . . . . . . .  MEMBER  -----   U_CHAR  000007H     1
  CCER1. . . . . . . . . . . . . . . .  MEMBER  -----   U_CHAR  000008H     1
  CCER2. . . . . . . . . . . . . . . .  MEMBER  -----   U_CHAR  000009H     1
  CNTRH. . . . . . . . . . . . . . . .  MEMBER  -----   U_CHAR  00000AH     1
  CNTRL. . . . . . . . . . . . . . . .  MEMBER  -----   U_CHAR  00000BH     1
  PSCR . . . . . . . . . . . . . . . .  MEMBER  -----   U_CHAR  00000CH     1
  ARRH . . . . . . . . . . . . . . . .  MEMBER  -----   U_CHAR  00000DH     1
  ARRL . . . . . . . . . . . . . . . .  MEMBER  -----   U_CHAR  00000EH     1
  CCR1H. . . . . . . . . . . . . . . .  MEMBER  -----   U_CHAR  00000FH     1
  CCR1L. . . . . . . . . . . . . . . .  MEMBER  -----   U_CHAR  000010H     1
  CCR2H. . . . . . . . . . . . . . . .  MEMBER  -----   U_CHAR  000011H     1
  CCR2L. . . . . . . . . . . . . . . .  MEMBER  -----   U_CHAR  000012H     1
  CCR3H. . . . . . . . . . . . . . . .  MEMBER  -----   U_CHAR  000013H     1
  CCR3L. . . . . . . . . . . . . . . .  MEMBER  -----   U_CHAR  000014H     1
TIM2_TypeDef . . . . . . . . . . . . .  TYPEDEF ------- STRUCT   -------    21
  CR1. . . . . . . . . . . . . . . . .  MEMBER  -----   U_CHAR  000000H     1
  IER. . . . . . . . . . . . . . . . .  MEMBER  -----   U_CHAR  000001H     1
  SR1. . . . . . . . . . . . . . . . .  MEMBER  -----   U_CHAR  000002H     1
  SR2. . . . . . . . . . . . . . . . .  MEMBER  -----   U_CHAR  000003H     1
  EGR. . . . . . . . . . . . . . . . .  MEMBER  -----   U_CHAR  000004H     1
  CCMR1. . . . . . . . . . . . . . . .  MEMBER  -----   U_CHAR  000005H     1
  CCMR2. . . . . . . . . . . . . . . .  MEMBER  -----   U_CHAR  000006H     1
  CCMR3. . . . . . . . . . . . . . . .  MEMBER  -----   U_CHAR  000007H     1
  CCER1. . . . . . . . . . . . . . . .  MEMBER  -----   U_CHAR  000008H     1
  CCER2. . . . . . . . . . . . . . . .  MEMBER  -----   U_CHAR  000009H     1
  CNTRH. . . . . . . . . . . . . . . .  MEMBER  -----   U_CHAR  00000AH     1
  CNTRL. . . . . . . . . . . . . . . .  MEMBER  -----   U_CHAR  00000BH     1
  PSCR . . . . . . . . . . . . . . . .  MEMBER  -----   U_CHAR  00000CH     1
  ARRH . . . . . . . . . . . . . . . .  MEMBER  -----   U_CHAR  00000DH     1
  ARRL . . . . . . . . . . . . . . . .  MEMBER  -----   U_CHAR  00000EH     1
  CCR1H. . . . . . . . . . . . . . . .  MEMBER  -----   U_CHAR  00000FH     1
  CCR1L. . . . . . . . . . . . . . . .  MEMBER  -----   U_CHAR  000010H     1
  CCR2H. . . . . . . . . . . . . . . .  MEMBER  -----   U_CHAR  000011H     1
  CCR2L. . . . . . . . . . . . . . . .  MEMBER  -----   U_CHAR  000012H     1
  CCR3H. . . . . . . . . . . . . . . .  MEMBER  -----   U_CHAR  000013H     1
  CCR3L. . . . . . . . . . . . . . . .  MEMBER  -----   U_CHAR  000014H     1
TIM3_struct. . . . . . . . . . . . . . * TAG *  ----- STRUCT  -------    17
  CR1. . . . . . . . . . . . . . . . .  MEMBER  -----   U_CHAR  000000H     1
  IER. . . . . . . . . . . . . . . . .  MEMBER  -----   U_CHAR  000001H     1
  SR1. . . . . . . . . . . . . . . . .  MEMBER  -----   U_CHAR  000002H     1
  SR2. . . . . . . . . . . . . . . . .  MEMBER  -----   U_CHAR  000003H     1
  EGR. . . . . . . . . . . . . . . . .  MEMBER  -----   U_CHAR  000004H     1
  CCMR1. . . . . . . . . . . . . . . .  MEMBER  -----   U_CHAR  000005H     1
  CCMR2. . . . . . . . . . . . . . . .  MEMBER  -----   U_CHAR  000006H     1
  CCER1. . . . . . . . . . . . . . . .  MEMBER  -----   U_CHAR  000007H     1
  CNTRH. . . . . . . . . . . . . . . .  MEMBER  -----   U_CHAR  000008H     1
  CNTRL. . . . . . . . . . . . . . . .  MEMBER  -----   U_CHAR  000009H     1
  PSCR . . . . . . . . . . . . . . . .  MEMBER  -----   U_CHAR  00000AH     1
  ARRH . . . . . . . . . . . . . . . .  MEMBER  -----   U_CHAR  00000BH     1
  ARRL . . . . . . . . . . . . . . . .  MEMBER  -----   U_CHAR  00000CH     1
  CCR1H. . . . . . . . . . . . . . . .  MEMBER  -----   U_CHAR  00000DH     1
  CCR1L. . . . . . . . . . . . . . . .  MEMBER  -----   U_CHAR  00000EH     1
  CCR2H. . . . . . . . . . . . . . . .  MEMBER  -----   U_CHAR  00000FH     1
  CCR2L. . . . . . . . . . . . . . . .  MEMBER  -----   U_CHAR  000010H     1
TIM3_TypeDef . . . . . . . . . . . . .  TYPEDEF ------- STRUCT   -------    17
  CR1. . . . . . . . . . . . . . . . .  MEMBER  -----   U_CHAR  000000H     1
  IER. . . . . . . . . . . . . . . . .  MEMBER  -----   U_CHAR  000001H     1
  SR1. . . . . . . . . . . . . . . . .  MEMBER  -----   U_CHAR  000002H     1
  SR2. . . . . . . . . . . . . . . . .  MEMBER  -----   U_CHAR  000003H     1
  EGR. . . . . . . . . . . . . . . . .  MEMBER  -----   U_CHAR  000004H     1
  CCMR1. . . . . . . . . . . . . . . .  MEMBER  -----   U_CHAR  000005H     1
  CCMR2. . . . . . . . . . . . . . . .  MEMBER  -----   U_CHAR  000006H     1
  CCER1. . . . . . . . . . . . . . . .  MEMBER  -----   U_CHAR  000007H     1
  CNTRH. . . . . . . . . . . . . . . .  MEMBER  -----   U_CHAR  000008H     1
  CNTRL. . . . . . . . . . . . . . . .  MEMBER  -----   U_CHAR  000009H     1
  PSCR . . . . . . . . . . . . . . . .  MEMBER  -----   U_CHAR  00000AH     1
  ARRH . . . . . . . . . . . . . . . .  MEMBER  -----   U_CHAR  00000BH     1
  ARRL . . . . . . . . . . . . . . . .  MEMBER  -----   U_CHAR  00000CH     1
  CCR1H. . . . . . . . . . . . . . . .  MEMBER  -----   U_CHAR  00000DH     1
  CCR1L. . . . . . . . . . . . . . . .  MEMBER  -----   U_CHAR  00000EH     1
  CCR2H. . . . . . . . . . . . . . . .  MEMBER  -----   U_CHAR  00000FH     1
  CCR2L. . . . . . . . . . . . . . . .  MEMBER  -----   U_CHAR  000010H     1
TIM4_struct. . . . . . . . . . . . . . * TAG *  ----- STRUCT  -------     7
  CR1. . . . . . . . . . . . . . . . .  MEMBER  -----   U_CHAR  000000H     1
  IER. . . . . . . . . . . . . . . . .  MEMBER  -----   U_CHAR  000001H     1
  SR1. . . . . . . . . . . . . . . . .  MEMBER  -----   U_CHAR  000002H     1
  EGR. . . . . . . . . . . . . . . . .  MEMBER  -----   U_CHAR  000003H     1
  CNTR . . . . . . . . . . . . . . . .  MEMBER  -----   U_CHAR  000004H     1
  PSCR . . . . . . . . . . . . . . . .  MEMBER  -----   U_CHAR  000005H     1
  ARR. . . . . . . . . . . . . . . . .  MEMBER  -----   U_CHAR  000006H     1
TIM4_TypeDef . . . . . . . . . . . . .  TYPEDEF ------- STRUCT   -------     7
  CR1. . . . . . . . . . . . . . . . .  MEMBER  -----   U_CHAR  000000H     1
  IER. . . . . . . . . . . . . . . . .  MEMBER  -----   U_CHAR  000001H     1
  SR1. . . . . . . . . . . . . . . . .  MEMBER  -----   U_CHAR  000002H     1
  EGR. . . . . . . . . . . . . . . . .  MEMBER  -----   U_CHAR  000003H     1
  CNTR . . . . . . . . . . . . . . . .  MEMBER  -----   U_CHAR  000004H     1
  PSCR . . . . . . . . . . . . . . . .  MEMBER  -----   U_CHAR  000005H     1
  ARR. . . . . . . . . . . . . . . . .  MEMBER  -----   U_CHAR  000006H     1
TIM5_struct. . . . . . . . . . . . . . * TAG *  ----- STRUCT  -------    23
  CR1. . . . . . . . . . . . . . . . .  MEMBER  -----   U_CHAR  000000H     1
  CR2. . . . . . . . . . . . . . . . .  MEMBER  -----   U_CHAR  000001H     1
  SMCR . . . . . . . . . . . . . . . .  MEMBER  -----   U_CHAR  000002H     1
  IER. . . . . . . . . . . . . . . . .  MEMBER  -----   U_CHAR  000003H     1
  SR1. . . . . . . . . . . . . . . . .  MEMBER  -----   U_CHAR  000004H     1
  SR2. . . . . . . . . . . . . . . . .  MEMBER  -----   U_CHAR  000005H     1
  EGR. . . . . . . . . . . . . . . . .  MEMBER  -----   U_CHAR  000006H     1
  CCMR1. . . . . . . . . . . . . . . .  MEMBER  -----   U_CHAR  000007H     1
  CCMR2. . . . . . . . . . . . . . . .  MEMBER  -----   U_CHAR  000008H     1
  CCMR3. . . . . . . . . . . . . . . .  MEMBER  -----   U_CHAR  000009H     1
  CCER1. . . . . . . . . . . . . . . .  MEMBER  -----   U_CHAR  00000AH     1
  CCER2. . . . . . . . . . . . . . . .  MEMBER  -----   U_CHAR  00000BH     1
  CNTRH. . . . . . . . . . . . . . . .  MEMBER  -----   U_CHAR  00000CH     1
  CNTRL. . . . . . . . . . . . . . . .  MEMBER  -----   U_CHAR  00000DH     1
  PSCR . . . . . . . . . . . . . . . .  MEMBER  -----   U_CHAR  00000EH     1
  ARRH . . . . . . . . . . . . . . . .  MEMBER  -----   U_CHAR  00000FH     1
  ARRL . . . . . . . . . . . . . . . .  MEMBER  -----   U_CHAR  000010H     1
  CCR1H. . . . . . . . . . . . . . . .  MEMBER  -----   U_CHAR  000011H     1
  CCR1L. . . . . . . . . . . . . . . .  MEMBER  -----   U_CHAR  000012H     1
  CCR2H. . . . . . . . . . . . . . . .  MEMBER  -----   U_CHAR  000013H     1
  CCR2L. . . . . . . . . . . . . . . .  MEMBER  -----   U_CHAR  000014H     1
  CCR3H. . . . . . . . . . . . . . . .  MEMBER  -----   U_CHAR  000015H     1
  CCR3L. . . . . . . . . . . . . . . .  MEMBER  -----   U_CHAR  000016H     1
TIM5_TypeDef . . . . . . . . . . . . .  TYPEDEF ------- STRUCT   -------    23
  CR1. . . . . . . . . . . . . . . . .  MEMBER  -----   U_CHAR  000000H     1
  CR2. . . . . . . . . . . . . . . . .  MEMBER  -----   U_CHAR  000001H     1
  SMCR . . . . . . . . . . . . . . . .  MEMBER  -----   U_CHAR  000002H     1
  IER. . . . . . . . . . . . . . . . .  MEMBER  -----   U_CHAR  000003H     1
  SR1. . . . . . . . . . . . . . . . .  MEMBER  -----   U_CHAR  000004H     1
  SR2. . . . . . . . . . . . . . . . .  MEMBER  -----   U_CHAR  000005H     1
  EGR. . . . . . . . . . . . . . . . .  MEMBER  -----   U_CHAR  000006H     1
  CCMR1. . . . . . . . . . . . . . . .  MEMBER  -----   U_CHAR  000007H     1
  CCMR2. . . . . . . . . . . . . . . .  MEMBER  -----   U_CHAR  000008H     1
  CCMR3. . . . . . . . . . . . . . . .  MEMBER  -----   U_CHAR  000009H     1
  CCER1. . . . . . . . . . . . . . . .  MEMBER  -----   U_CHAR  00000AH     1
  CCER2. . . . . . . . . . . . . . . .  MEMBER  -----   U_CHAR  00000BH     1
  CNTRH. . . . . . . . . . . . . . . .  MEMBER  -----   U_CHAR  00000CH     1
  CNTRL. . . . . . . . . . . . . . . .  MEMBER  -----   U_CHAR  00000DH     1
  PSCR . . . . . . . . . . . . . . . .  MEMBER  -----   U_CHAR  00000EH     1
  ARRH . . . . . . . . . . . . . . . .  MEMBER  -----   U_CHAR  00000FH     1
  ARRL . . . . . . . . . . . . . . . .  MEMBER  -----   U_CHAR  000010H     1
  CCR1H. . . . . . . . . . . . . . . .  MEMBER  -----   U_CHAR  000011H     1
  CCR1L. . . . . . . . . . . . . . . .  MEMBER  -----   U_CHAR  000012H     1
  CCR2H. . . . . . . . . . . . . . . .  MEMBER  -----   U_CHAR  000013H     1
  CCR2L. . . . . . . . . . . . . . . .  MEMBER  -----   U_CHAR  000014H     1
  CCR3H. . . . . . . . . . . . . . . .  MEMBER  -----   U_CHAR  000015H     1
  CCR3L. . . . . . . . . . . . . . . .  MEMBER  -----   U_CHAR  000016H     1
TIM6_struct. . . . . . . . . . . . . . * TAG *  ----- STRUCT  -------     9
  CR1. . . . . . . . . . . . . . . . .  MEMBER  -----   U_CHAR  000000H     1
  CR2. . . . . . . . . . . . . . . . .  MEMBER  -----   U_CHAR  000001H     1
  SMCR . . . . . . . . . . . . . . . .  MEMBER  -----   U_CHAR  000002H     1
  IER. . . . . . . . . . . . . . . . .  MEMBER  -----   U_CHAR  000003H     1
  SR1. . . . . . . . . . . . . . . . .  MEMBER  -----   U_CHAR  000004H     1
  EGR. . . . . . . . . . . . . . . . .  MEMBER  -----   U_CHAR  000005H     1
  CNTR . . . . . . . . . . . . . . . .  MEMBER  -----   U_CHAR  000006H     1
  PSCR . . . . . . . . . . . . . . . .  MEMBER  -----   U_CHAR  000007H     1
  ARR. . . . . . . . . . . . . . . . .  MEMBER  -----   U_CHAR  000008H     1
TIM6_TypeDef . . . . . . . . . . . . .  TYPEDEF ------- STRUCT   -------     9
  CR1. . . . . . . . . . . . . . . . .  MEMBER  -----   U_CHAR  000000H     1
  CR2. . . . . . . . . . . . . . . . .  MEMBER  -----   U_CHAR  000001H     1
  SMCR . . . . . . . . . . . . . . . .  MEMBER  -----   U_CHAR  000002H     1
  IER. . . . . . . . . . . . . . . . .  MEMBER  -----   U_CHAR  000003H     1
  SR1. . . . . . . . . . . . . . . . .  MEMBER  -----   U_CHAR  000004H     1
  EGR. . . . . . . . . . . . . . . . .  MEMBER  -----   U_CHAR  000005H     1
  CNTR . . . . . . . . . . . . . . . .  MEMBER  -----   U_CHAR  000006H     1
  PSCR . . . . . . . . . . . . . . . .  MEMBER  -----   U_CHAR  000007H     1
  ARR. . . . . . . . . . . . . . . . .  MEMBER  -----   U_CHAR  000008H     1
I2C_struct . . . . . . . . . . . . . . * TAG *  ----- STRUCT  -------    15
  CR1. . . . . . . . . . . . . . . . .  MEMBER  -----   U_CHAR  000000H     1
  CR2. . . . . . . . . . . . . . . . .  MEMBER  -----   U_CHAR  000001H     1
  FREQR. . . . . . . . . . . . . . . .  MEMBER  -----   U_CHAR  000002H     1
  OARL . . . . . . . . . . . . . . . .  MEMBER  -----   U_CHAR  000003H     1
  OARH . . . . . . . . . . . . . . . .  MEMBER  -----   U_CHAR  000004H     1
  RESERVED1. . . . . . . . . . . . . .  MEMBER  -----   U_CHAR  000005H     1
  DR . . . . . . . . . . . . . . . . .  MEMBER  -----   U_CHAR  000006H     1
  SR1. . . . . . . . . . . . . . . . .  MEMBER  -----   U_CHAR  000007H     1
  SR2. . . . . . . . . . . . . . . . .  MEMBER  -----   U_CHAR  000008H     1
  SR3. . . . . . . . . . . . . . . . .  MEMBER  -----   U_CHAR  000009H     1
  ITR. . . . . . . . . . . . . . . . .  MEMBER  -----   U_CHAR  00000AH     1
  CCRL . . . . . . . . . . . . . . . .  MEMBER  -----   U_CHAR  00000BH     1
  CCRH . . . . . . . . . . . . . . . .  MEMBER  -----   U_CHAR  00000CH     1
  TRISER . . . . . . . . . . . . . . .  MEMBER  -----   U_CHAR  00000DH     1
  RESERVED2. . . . . . . . . . . . . .  MEMBER  -----   U_CHAR  00000EH     1
I2C_TypeDef. . . . . . . . . . . . . .  TYPEDEF ------- STRUCT   -------    15
  CR1. . . . . . . . . . . . . . . . .  MEMBER  -----   U_CHAR  000000H     1
  CR2. . . . . . . . . . . . . . . . .  MEMBER  -----   U_CHAR  000001H     1
  FREQR. . . . . . . . . . . . . . . .  MEMBER  -----   U_CHAR  000002H     1
  OARL . . . . . . . . . . . . . . . .  MEMBER  -----   U_CHAR  000003H     1
  OARH . . . . . . . . . . . . . . . .  MEMBER  -----   U_CHAR  000004H     1
  RESERVED1. . . . . . . . . . . . . .  MEMBER  -----   U_CHAR  000005H     1
  DR . . . . . . . . . . . . . . . . .  MEMBER  -----   U_CHAR  000006H     1
  SR1. . . . . . . . . . . . . . . . .  MEMBER  -----   U_CHAR  000007H     1
  SR2. . . . . . . . . . . . . . . . .  MEMBER  -----   U_CHAR  000008H     1
  SR3. . . . . . . . . . . . . . . . .  MEMBER  -----   U_CHAR  000009H     1
  ITR. . . . . . . . . . . . . . . . .  MEMBER  -----   U_CHAR  00000AH     1
  CCRL . . . . . . . . . . . . . . . .  MEMBER  -----   U_CHAR  00000BH     1
  CCRH . . . . . . . . . . . . . . . .  MEMBER  -----   U_CHAR  00000CH     1
  TRISER . . . . . . . . . . . . . . .  MEMBER  -----   U_CHAR  00000DH     1
  RESERVED2. . . . . . . . . . . . . .  MEMBER  -----   U_CHAR  00000EH     1
ITC_struct . . . . . . . . . . . . . . * TAG *  ----- STRUCT  -------     8
  ISPR1. . . . . . . . . . . . . . . .  MEMBER  -----   U_CHAR  000000H     1
  ISPR2. . . . . . . . . . . . . . . .  MEMBER  -----   U_CHAR  000001H     1
  ISPR3. . . . . . . . . . . . . . . .  MEMBER  -----   U_CHAR  000002H     1
  ISPR4. . . . . . . . . . . . . . . .  MEMBER  -----   U_CHAR  000003H     1
  ISPR5. . . . . . . . . . . . . . . .  MEMBER  -----   U_CHAR  000004H     1
  ISPR6. . . . . . . . . . . . . . . .  MEMBER  -----   U_CHAR  000005H     1
  ISPR7. . . . . . . . . . . . . . . .  MEMBER  -----   U_CHAR  000006H     1
  ISPR8. . . . . . . . . . . . . . . .  MEMBER  -----   U_CHAR  000007H     1
ITC_TypeDef. . . . . . . . . . . . . .  TYPEDEF ------- STRUCT   -------     8
  ISPR1. . . . . . . . . . . . . . . .  MEMBER  -----   U_CHAR  000000H     1
  ISPR2. . . . . . . . . . . . . . . .  MEMBER  -----   U_CHAR  000001H     1
  ISPR3. . . . . . . . . . . . . . . .  MEMBER  -----   U_CHAR  000002H     1
  ISPR4. . . . . . . . . . . . . . . .  MEMBER  -----   U_CHAR  000003H     1
  ISPR5. . . . . . . . . . . . . . . .  MEMBER  -----   U_CHAR  000004H     1
  ISPR6. . . . . . . . . . . . . . . .  MEMBER  -----   U_CHAR  000005H     1
  ISPR7. . . . . . . . . . . . . . . .  MEMBER  -----   U_CHAR  000006H     1
  ISPR8. . . . . . . . . . . . . . . .  MEMBER  -----   U_CHAR  000007H     1
EXTI_struct. . . . . . . . . . . . . . * TAG *  ----- STRUCT  -------     2
  CR1. . . . . . . . . . . . . . . . .  MEMBER  -----   U_CHAR  000000H     1
  CR2. . . . . . . . . . . . . . . . .  MEMBER  -----   U_CHAR  000001H     1
EXTI_TypeDef . . . . . . . . . . . . .  TYPEDEF ------- STRUCT   -------     2
  CR1. . . . . . . . . . . . . . . . .  MEMBER  -----   U_CHAR  000000H     1
  CR2. . . . . . . . . . . . . . . . .  MEMBER  -----   U_CHAR  000001H     1
FLASH_struct . . . . . . . . . . . . . * TAG *  ----- STRUCT  -------    11
  CR1. . . . . . . . . . . . . . . . .  MEMBER  -----   U_CHAR  000000H     1
  CR2. . . . . . . . . . . . . . . . .  MEMBER  -----   U_CHAR  000001H     1
  NCR2 . . . . . . . . . . . . . . . .  MEMBER  -----   U_CHAR  000002H     1
  FPR. . . . . . . . . . . . . . . . .  MEMBER  -----   U_CHAR  000003H     1
  NFPR . . . . . . . . . . . . . . . .  MEMBER  -----   U_CHAR  000004H     1
  IAPSR. . . . . . . . . . . . . . . .  MEMBER  -----   U_CHAR  000005H     1
  RESERVED1. . . . . . . . . . . . . .  MEMBER  -----   U_CHAR  000006H     1
  RESERVED2. . . . . . . . . . . . . .  MEMBER  -----   U_CHAR  000007H     1
  PUKR . . . . . . . . . . . . . . . .  MEMBER  -----   U_CHAR  000008H     1
  RESERVED3. . . . . . . . . . . . . .  MEMBER  -----   U_CHAR  000009H     1
  DUKR . . . . . . . . . . . . . . . .  MEMBER  -----   U_CHAR  00000AH     1
FLASH_TypeDef. . . . . . . . . . . . .  TYPEDEF ------- STRUCT   -------    11
  CR1. . . . . . . . . . . . . . . . .  MEMBER  -----   U_CHAR  000000H     1
  CR2. . . . . . . . . . . . . . . . .  MEMBER  -----   U_CHAR  000001H     1
  NCR2 . . . . . . . . . . . . . . . .  MEMBER  -----   U_CHAR  000002H     1
  FPR. . . . . . . . . . . . . . . . .  MEMBER  -----   U_CHAR  000003H     1
  NFPR . . . . . . . . . . . . . . . .  MEMBER  -----   U_CHAR  000004H     1
  IAPSR. . . . . . . . . . . . . . . .  MEMBER  -----   U_CHAR  000005H     1
  RESERVED1. . . . . . . . . . . . . .  MEMBER  -----   U_CHAR  000006H     1
  RESERVED2. . . . . . . . . . . . . .  MEMBER  -----   U_CHAR  000007H     1
  PUKR . . . . . . . . . . . . . . . .  MEMBER  -----   U_CHAR  000008H     1
  RESERVED3. . . . . . . . . . . . . .  MEMBER  -----   U_CHAR  000009H     1
  DUKR . . . . . . . . . . . . . . . .  MEMBER  -----   U_CHAR  00000AH     1
OPT_struct . . . . . . . . . . . . . . * TAG *  ----- STRUCT  -------    15
  OPT0 . . . . . . . . . . . . . . . .  MEMBER  -----   U_CHAR  000000H     1
  OPT1 . . . . . . . . . . . . . . . .  MEMBER  -----   U_CHAR  000001H     1
  NOPT1. . . . . . . . . . . . . . . .  MEMBER  -----   U_CHAR  000002H     1
  OPT2 . . . . . . . . . . . . . . . .  MEMBER  -----   U_CHAR  000003H     1
  NOPT2. . . . . . . . . . . . . . . .  MEMBER  -----   U_CHAR  000004H     1
  OPT3 . . . . . . . . . . . . . . . .  MEMBER  -----   U_CHAR  000005H     1
  NOPT3. . . . . . . . . . . . . . . .  MEMBER  -----   U_CHAR  000006H     1
  OPT4 . . . . . . . . . . . . . . . .  MEMBER  -----   U_CHAR  000007H     1
  NOPT4. . . . . . . . . . . . . . . .  MEMBER  -----   U_CHAR  000008H     1
  OPT5 . . . . . . . . . . . . . . . .  MEMBER  -----   U_CHAR  000009H     1
  NOPT5. . . . . . . . . . . . . . . .  MEMBER  -----   U_CHAR  00000AH     1
  RESERVED1. . . . . . . . . . . . . .  MEMBER  -----   U_CHAR  00000BH     1
  RESERVED2. . . . . . . . . . . . . .  MEMBER  -----   U_CHAR  00000CH     1
  OPT7 . . . . . . . . . . . . . . . .  MEMBER  -----   U_CHAR  00000DH     1
  NOPT7. . . . . . . . . . . . . . . .  MEMBER  -----   U_CHAR  00000EH     1
OPT_TypeDef. . . . . . . . . . . . . .  TYPEDEF ------- STRUCT   -------    15
  OPT0 . . . . . . . . . . . . . . . .  MEMBER  -----   U_CHAR  000000H     1
  OPT1 . . . . . . . . . . . . . . . .  MEMBER  -----   U_CHAR  000001H     1
  NOPT1. . . . . . . . . . . . . . . .  MEMBER  -----   U_CHAR  000002H     1
  OPT2 . . . . . . . . . . . . . . . .  MEMBER  -----   U_CHAR  000003H     1
  NOPT2. . . . . . . . . . . . . . . .  MEMBER  -----   U_CHAR  000004H     1
  OPT3 . . . . . . . . . . . . . . . .  MEMBER  -----   U_CHAR  000005H     1
  NOPT3. . . . . . . . . . . . . . . .  MEMBER  -----   U_CHAR  000006H     1
  OPT4 . . . . . . . . . . . . . . . .  MEMBER  -----   U_CHAR  000007H     1
  NOPT4. . . . . . . . . . . . . . . .  MEMBER  -----   U_CHAR  000008H     1
  OPT5 . . . . . . . . . . . . . . . .  MEMBER  -----   U_CHAR  000009H     1
  NOPT5. . . . . . . . . . . . . . . .  MEMBER  -----   U_CHAR  00000AH     1
  RESERVED1. . . . . . . . . . . . . .  MEMBER  -----   U_CHAR  00000BH     1
  RESERVED2. . . . . . . . . . . . . .  MEMBER  -----   U_CHAR  00000CH     1
  OPT7 . . . . . . . . . . . . . . . .  MEMBER  -----   U_CHAR  00000DH     1
  NOPT7. . . . . . . . . . . . . . . .  MEMBER  -----   U_CHAR  00000EH     1
IWDG_struct. . . . . . . . . . . . . . * TAG *  ----- STRUCT  -------     3
  KR . . . . . . . . . . . . . . . . .  MEMBER  -----   U_CHAR  000000H     1
  PR . . . . . . . . . . . . . . . . .  MEMBER  -----   U_CHAR  000001H     1
  RLR. . . . . . . . . . . . . . . . .  MEMBER  -----   U_CHAR  000002H     1
IWDG_TypeDef . . . . . . . . . . . . .  TYPEDEF ------- STRUCT   -------     3
  KR . . . . . . . . . . . . . . . . .  MEMBER  -----   U_CHAR  000000H     1
  PR . . . . . . . . . . . . . . . . .  MEMBER  -----   U_CHAR  000001H     1
  RLR. . . . . . . . . . . . . . . . .  MEMBER  -----   U_CHAR  000002H     1
WWDG_struct. . . . . . . . . . . . . . * TAG *  ----- STRUCT  -------     2
  CR . . . . . . . . . . . . . . . . .  MEMBER  -----   U_CHAR  000000H     1
  WR . . . . . . . . . . . . . . . . .  MEMBER  -----   U_CHAR  000001H     1
WWDG_TypeDef . . . . . . . . . . . . .  TYPEDEF ------- STRUCT   -------     2
  CR . . . . . . . . . . . . . . . . .  MEMBER  -----   U_CHAR  000000H     1
  WR . . . . . . . . . . . . . . . . .  MEMBER  -----   U_CHAR  000001H     1
RST_struct . . . . . . . . . . . . . . * TAG *  ----- STRUCT  -------     1
  SR . . . . . . . . . . . . . . . . .  MEMBER  -----   U_CHAR  000000H     1
RST_TypeDef. . . . . . . . . . . . . .  TYPEDEF ------- STRUCT   -------     1
  SR . . . . . . . . . . . . . . . . .  MEMBER  -----   U_CHAR  000000H     1
SPI_struct . . . . . . . . . . . . . . * TAG *  ----- STRUCT  -------     8
  CR1. . . . . . . . . . . . . . . . .  MEMBER  -----   U_CHAR  000000H     1
  CR2. . . . . . . . . . . . . . . . .  MEMBER  -----   U_CHAR  000001H     1
  ICR. . . . . . . . . . . . . . . . .  MEMBER  -----   U_CHAR  000002H     1
  SR . . . . . . . . . . . . . . . . .  MEMBER  -----   U_CHAR  000003H     1
  DR . . . . . . . . . . . . . . . . .  MEMBER  -----   U_CHAR  000004H     1
  CRCPR. . . . . . . . . . . . . . . .  MEMBER  -----   U_CHAR  000005H     1
  RXCRCR . . . . . . . . . . . . . . .  MEMBER  -----   U_CHAR  000006H     1
  TXCRCR . . . . . . . . . . . . . . .  MEMBER  -----   U_CHAR  000007H     1
SPI_TypeDef. . . . . . . . . . . . . .  TYPEDEF ------- STRUCT   -------     8
  CR1. . . . . . . . . . . . . . . . .  MEMBER  -----   U_CHAR  000000H     1
  CR2. . . . . . . . . . . . . . . . .  MEMBER  -----   U_CHAR  000001H     1
  ICR. . . . . . . . . . . . . . . . .  MEMBER  -----   U_CHAR  000002H     1
  SR . . . . . . . . . . . . . . . . .  MEMBER  -----   U_CHAR  000003H     1
  DR . . . . . . . . . . . . . . . . .  MEMBER  -----   U_CHAR  000004H     1
  CRCPR. . . . . . . . . . . . . . . .  MEMBER  -----   U_CHAR  000005H     1
  RXCRCR . . . . . . . . . . . . . . .  MEMBER  -----   U_CHAR  000006H     1
  TXCRCR . . . . . . . . . . . . . . .  MEMBER  -----   U_CHAR  000007H     1
UART1_struct . . . . . . . . . . . . . * TAG *  ----- STRUCT  -------    11
  SR . . . . . . . . . . . . . . . . .  MEMBER  -----   U_CHAR  000000H     1
  DR . . . . . . . . . . . . . . . . .  MEMBER  -----   U_CHAR  000001H     1
  BRR1 . . . . . . . . . . . . . . . .  MEMBER  -----   U_CHAR  000002H     1
  BRR2 . . . . . . . . . . . . . . . .  MEMBER  -----   U_CHAR  000003H     1
  CR1. . . . . . . . . . . . . . . . .  MEMBER  -----   U_CHAR  000004H     1
  CR2. . . . . . . . . . . . . . . . .  MEMBER  -----   U_CHAR  000005H     1
  CR3. . . . . . . . . . . . . . . . .  MEMBER  -----   U_CHAR  000006H     1
  CR4. . . . . . . . . . . . . . . . .  MEMBER  -----   U_CHAR  000007H     1
  CR5. . . . . . . . . . . . . . . . .  MEMBER  -----   U_CHAR  000008H     1
  GTR. . . . . . . . . . . . . . . . .  MEMBER  -----   U_CHAR  000009H     1
  PSCR . . . . . . . . . . . . . . . .  MEMBER  -----   U_CHAR  00000AH     1
UART1_TypeDef. . . . . . . . . . . . .  TYPEDEF ------- STRUCT   -------    11
  SR . . . . . . . . . . . . . . . . .  MEMBER  -----   U_CHAR  000000H     1
  DR . . . . . . . . . . . . . . . . .  MEMBER  -----   U_CHAR  000001H     1
  BRR1 . . . . . . . . . . . . . . . .  MEMBER  -----   U_CHAR  000002H     1
  BRR2 . . . . . . . . . . . . . . . .  MEMBER  -----   U_CHAR  000003H     1
  CR1. . . . . . . . . . . . . . . . .  MEMBER  -----   U_CHAR  000004H     1
  CR2. . . . . . . . . . . . . . . . .  MEMBER  -----   U_CHAR  000005H     1
  CR3. . . . . . . . . . . . . . . . .  MEMBER  -----   U_CHAR  000006H     1
  CR4. . . . . . . . . . . . . . . . .  MEMBER  -----   U_CHAR  000007H     1
  CR5. . . . . . . . . . . . . . . . .  MEMBER  -----   U_CHAR  000008H     1
  GTR. . . . . . . . . . . . . . . . .  MEMBER  -----   U_CHAR  000009H     1
  PSCR . . . . . . . . . . . . . . . .  MEMBER  -----   U_CHAR  00000AH     1
UART2_struct . . . . . . . . . . . . . * TAG *  ----- STRUCT  -------    12
  SR . . . . . . . . . . . . . . . . .  MEMBER  -----   U_CHAR  000000H     1
  DR . . . . . . . . . . . . . . . . .  MEMBER  -----   U_CHAR  000001H     1
  BRR1 . . . . . . . . . . . . . . . .  MEMBER  -----   U_CHAR  000002H     1
  BRR2 . . . . . . . . . . . . . . . .  MEMBER  -----   U_CHAR  000003H     1
  CR1. . . . . . . . . . . . . . . . .  MEMBER  -----   U_CHAR  000004H     1
  CR2. . . . . . . . . . . . . . . . .  MEMBER  -----   U_CHAR  000005H     1
  CR3. . . . . . . . . . . . . . . . .  MEMBER  -----   U_CHAR  000006H     1
  CR4. . . . . . . . . . . . . . . . .  MEMBER  -----   U_CHAR  000007H     1
  CR5. . . . . . . . . . . . . . . . .  MEMBER  -----   U_CHAR  000008H     1
  CR6. . . . . . . . . . . . . . . . .  MEMBER  -----   U_CHAR  000009H     1
  GTR. . . . . . . . . . . . . . . . .  MEMBER  -----   U_CHAR  00000AH     1
  PSCR . . . . . . . . . . . . . . . .  MEMBER  -----   U_CHAR  00000BH     1
UART2_TypeDef. . . . . . . . . . . . .  TYPEDEF ------- STRUCT   -------    12
  SR . . . . . . . . . . . . . . . . .  MEMBER  -----   U_CHAR  000000H     1
  DR . . . . . . . . . . . . . . . . .  MEMBER  -----   U_CHAR  000001H     1
  BRR1 . . . . . . . . . . . . . . . .  MEMBER  -----   U_CHAR  000002H     1
  BRR2 . . . . . . . . . . . . . . . .  MEMBER  -----   U_CHAR  000003H     1
  CR1. . . . . . . . . . . . . . . . .  MEMBER  -----   U_CHAR  000004H     1
  CR2. . . . . . . . . . . . . . . . .  MEMBER  -----   U_CHAR  000005H     1
  CR3. . . . . . . . . . . . . . . . .  MEMBER  -----   U_CHAR  000006H     1
  CR4. . . . . . . . . . . . . . . . .  MEMBER  -----   U_CHAR  000007H     1
  CR5. . . . . . . . . . . . . . . . .  MEMBER  -----   U_CHAR  000008H     1
  CR6. . . . . . . . . . . . . . . . .  MEMBER  -----   U_CHAR  000009H     1
  GTR. . . . . . . . . . . . . . . . .  MEMBER  -----   U_CHAR  00000AH     1
  PSCR . . . . . . . . . . . . . . . .  MEMBER  -----   U_CHAR  00000BH     1
UART3_struct . . . . . . . . . . . . . * TAG *  ----- STRUCT  -------    10
  SR . . . . . . . . . . . . . . . . .  MEMBER  -----   U_CHAR  000000H     1
  DR . . . . . . . . . . . . . . . . .  MEMBER  -----   U_CHAR  000001H     1
  BRR1 . . . . . . . . . . . . . . . .  MEMBER  -----   U_CHAR  000002H     1
  BRR2 . . . . . . . . . . . . . . . .  MEMBER  -----   U_CHAR  000003H     1
  CR1. . . . . . . . . . . . . . . . .  MEMBER  -----   U_CHAR  000004H     1
  CR2. . . . . . . . . . . . . . . . .  MEMBER  -----   U_CHAR  000005H     1
  CR3. . . . . . . . . . . . . . . . .  MEMBER  -----   U_CHAR  000006H     1
  CR4. . . . . . . . . . . . . . . . .  MEMBER  -----   U_CHAR  000007H     1
  RESERVED . . . . . . . . . . . . . .  MEMBER  -----   U_CHAR  000008H     1
  CR6. . . . . . . . . . . . . . . . .  MEMBER  -----   U_CHAR  000009H     1
UART3_TypeDef. . . . . . . . . . . . .  TYPEDEF ------- STRUCT   -------    10
  SR . . . . . . . . . . . . . . . . .  MEMBER  -----   U_CHAR  000000H     1
  DR . . . . . . . . . . . . . . . . .  MEMBER  -----   U_CHAR  000001H     1
  BRR1 . . . . . . . . . . . . . . . .  MEMBER  -----   U_CHAR  000002H     1
  BRR2 . . . . . . . . . . . . . . . .  MEMBER  -----   U_CHAR  000003H     1
  CR1. . . . . . . . . . . . . . . . .  MEMBER  -----   U_CHAR  000004H     1
  CR2. . . . . . . . . . . . . . . . .  MEMBER  -----   U_CHAR  000005H     1
  CR3. . . . . . . . . . . . . . . . .  MEMBER  -----   U_CHAR  000006H     1
  CR4. . . . . . . . . . . . . . . . .  MEMBER  -----   U_CHAR  000007H     1
  RESERVED . . . . . . . . . . . . . .  MEMBER  -----   U_CHAR  000008H     1
  CR6. . . . . . . . . . . . . . . . .  MEMBER  -----   U_CHAR  000009H     1
CAN_TypeDef. . . . . . . . . . . . . .  TYPEDEF ------- STRUCT   -------    24
  MCR. . . . . . . . . . . . . . . . .  MEMBER  -----   U_CHAR  000000H     1
  MSR. . . . . . . . . . . . . . . . .  MEMBER  -----   U_CHAR  000001H     1
  TSR. . . . . . . . . . . . . . . . .  MEMBER  -----   U_CHAR  000002H     1
  TPR. . . . . . . . . . . . . . . . .  MEMBER  -----   U_CHAR  000003H     1
  RFR. . . . . . . . . . . . . . . . .  MEMBER  -----   U_CHAR  000004H     1
  IER. . . . . . . . . . . . . . . . .  MEMBER  -----   U_CHAR  000005H     1
  DGR. . . . . . . . . . . . . . . . .  MEMBER  -----   U_CHAR  000006H     1
  PSR. . . . . . . . . . . . . . . . .  MEMBER  -----   U_CHAR  000007H     1
  Page . . . . . . . . . . . . . . . .  MEMBER  -----   UNION   000008H    16
CFG_struct . . . . . . . . . . . . . . * TAG *  ----- STRUCT  -------     1
  GCR. . . . . . . . . . . . . . . . .  MEMBER  -----   U_CHAR  000000H     1
CFG_TypeDef. . . . . . . . . . . . . .  TYPEDEF ------- STRUCT   -------     1
  GCR. . . . . . . . . . . . . . . . .  MEMBER  -----   U_CHAR  000000H     1
CLK_SWITCHMODE_MANUAL. . . . . . . . . E_CONST  ----- INT      -------  2
CLK_SWITCHMODE_AUTO. . . . . . . . . . E_CONST  ----- INT      -------  2
CLK_SwitchMode_TypeDef . . . . . . . .  TYPEDEF ------- INT   -------     2
CLK_CURRENTCLOCKSTATE_DISABLE. . . . . E_CONST  ----- INT      -------  2
CLK_CURRENTCLOCKSTATE_ENABLE . . . . . E_CONST  ----- INT      -------  2
CLK_CurrentClockState_TypeDef. . . . .  TYPEDEF ------- INT   -------     2
CLK_CSSCONFIG_ENABLEWITHIT . . . . . . E_CONST  ----- INT      -------  2
CLK_CSSCONFIG_ENABLE . . . . . . . . . E_CONST  ----- INT      -------  2
CLK_CSSCONFIG_DISABLE. . . . . . . . . E_CONST  ----- INT      -------  2
CLK_CSSConfig_TypeDef. . . . . . . . .  TYPEDEF ------- INT   -------     2
CLK_SOURCE_HSI . . . . . . . . . . . . E_CONST  ----- INT      -------  2
CLK_SOURCE_LSI . . . . . . . . . . . . E_CONST  ----- INT      -------  2
CLK_SOURCE_HSE . . . . . . . . . . . . E_CONST  ----- INT      -------  2
CLK_Source_TypeDef . . . . . . . . . .  TYPEDEF ------- INT   -------     2
CLK_HSITRIMVALUE_0 . . . . . . . . . . E_CONST  ----- INT      -------  2
CLK_HSITRIMVALUE_1 . . . . . . . . . . E_CONST  ----- INT      -------  2
CLK_HSITRIMVALUE_2 . . . . . . . . . . E_CONST  ----- INT      -------  2
CLK_HSITRIMVALUE_3 . . . . . . . . . . E_CONST  ----- INT      -------  2
CLK_HSITRIMVALUE_4 . . . . . . . . . . E_CONST  ----- INT      -------  2
CLK_HSITRIMVALUE_5 . . . . . . . . . . E_CONST  ----- INT      -------  2
CLK_HSITRIMVALUE_6 . . . . . . . . . . E_CONST  ----- INT      -------  2
CLK_HSITRIMVALUE_7 . . . . . . . . . . E_CONST  ----- INT      -------  2
CLK_HSITrimValue_TypeDef . . . . . . .  TYPEDEF ------- INT   -------     2
CLK_OUTPUT_HSI . . . . . . . . . . . . E_CONST  ----- INT      -------  2
CLK_OUTPUT_LSI . . . . . . . . . . . . E_CONST  ----- INT      -------  2
CLK_OUTPUT_HSE . . . . . . . . . . . . E_CONST  ----- INT      -------  2
CLK_OUTPUT_CPU . . . . . . . . . . . . E_CONST  ----- INT      -------  2
CLK_OUTPUT_CPUDIV2 . . . . . . . . . . E_CONST  ----- INT      -------  2
CLK_OUTPUT_CPUDIV4 . . . . . . . . . . E_CONST  ----- INT      -------  2
CLK_OUTPUT_CPUDIV8 . . . . . . . . . . E_CONST  ----- INT      -------  2
CLK_OUTPUT_CPUDIV16. . . . . . . . . . E_CONST  ----- INT      -------  2
CLK_OUTPUT_CPUDIV32. . . . . . . . . . E_CONST  ----- INT      -------  2
CLK_OUTPUT_CPUDIV64. . . . . . . . . . E_CONST  ----- INT      -------  2
CLK_OUTPUT_HSIRC . . . . . . . . . . . E_CONST  ----- INT      -------  2
CLK_OUTPUT_MASTER. . . . . . . . . . . E_CONST  ----- INT      -------  2
CLK_OUTPUT_OTHERS. . . . . . . . . . . E_CONST  ----- INT      -------  2
CLK_Output_TypeDef . . . . . . . . . .  TYPEDEF ------- INT   -------     2
CLK_PERIPHERAL_I2C . . . . . . . . . . E_CONST  ----- INT      -------  2
CLK_PERIPHERAL_SPI . . . . . . . . . . E_CONST  ----- INT      -------  2
CLK_PERIPHERAL_UART1 . . . . . . . . . E_CONST  ----- INT      -------  2
CLK_PERIPHERAL_UART2 . . . . . . . . . E_CONST  ----- INT      -------  2
CLK_PERIPHERAL_UART3 . . . . . . . . . E_CONST  ----- INT      -------  2
CLK_PERIPHERAL_TIMER6. . . . . . . . . E_CONST  ----- INT      -------  2
CLK_PERIPHERAL_TIMER4. . . . . . . . . E_CONST  ----- INT      -------  2
CLK_PERIPHERAL_TIMER5. . . . . . . . . E_CONST  ----- INT      -------  2
CLK_PERIPHERAL_TIMER2. . . . . . . . . E_CONST  ----- INT      -------  2
CLK_PERIPHERAL_TIMER3. . . . . . . . . E_CONST  ----- INT      -------  2
CLK_PERIPHERAL_TIMER1. . . . . . . . . E_CONST  ----- INT      -------  2
CLK_PERIPHERAL_AWU . . . . . . . . . . E_CONST  ----- INT      -------  2
CLK_PERIPHERAL_ADC . . . . . . . . . . E_CONST  ----- INT      -------  2
CLK_PERIPHERAL_CAN . . . . . . . . . . E_CONST  ----- INT      -------  2
CLK_Peripheral_TypeDef . . . . . . . .  TYPEDEF ------- INT   -------     2
CLK_FLAG_LSIRDY. . . . . . . . . . . . E_CONST  ----- INT      -------  2
CLK_FLAG_HSIRDY. . . . . . . . . . . . E_CONST  ----- INT      -------  2
CLK_FLAG_HSERDY. . . . . . . . . . . . E_CONST  ----- INT      -------  2
CLK_FLAG_SWIF. . . . . . . . . . . . . E_CONST  ----- INT      -------  2
CLK_FLAG_SWBSY . . . . . . . . . . . . E_CONST  ----- INT      -------  2
CLK_FLAG_CSSD. . . . . . . . . . . . . E_CONST  ----- INT      -------  2
CLK_FLAG_AUX . . . . . . . . . . . . . E_CONST  ----- INT      -------  2
CLK_FLAG_CCOBSY. . . . . . . . . . . . E_CONST  ----- INT      -------  2
CLK_FLAG_CCORDY. . . . . . . . . . . . E_CONST  ----- INT      -------  2
CLK_Flag_TypeDef . . . . . . . . . . .  TYPEDEF ------- INT   -------     2
CLK_IT_CSSD. . . . . . . . . . . . . . E_CONST  ----- INT      -------  2
CLK_IT_SWIF. . . . . . . . . . . . . . E_CONST  ----- INT      -------  2
CLK_IT_TypeDef . . . . . . . . . . . .  TYPEDEF ------- INT   -------     2
CLK_PRESCALER_HSIDIV1. . . . . . . . . E_CONST  ----- INT      -------  2
CLK_PRESCALER_HSIDIV2. . . . . . . . . E_CONST  ----- INT      -------  2
CLK_PRESCALER_HSIDIV4. . . . . . . . . E_CONST  ----- INT      -------  2
CLK_PRESCALER_HSIDIV8. . . . . . . . . E_CONST  ----- INT      -------  2
CLK_PRESCALER_CPUDIV1. . . . . . . . . E_CONST  ----- INT      -------  2
CLK_PRESCALER_CPUDIV2. . . . . . . . . E_CONST  ----- INT      -------  2
CLK_PRESCALER_CPUDIV4. . . . . . . . . E_CONST  ----- INT      -------  2
CLK_PRESCALER_CPUDIV8. . . . . . . . . E_CONST  ----- INT      -------  2
CLK_PRESCALER_CPUDIV16 . . . . . . . . E_CONST  ----- INT      -------  2
CLK_PRESCALER_CPUDIV32 . . . . . . . . E_CONST  ----- INT      -------  2
CLK_PRESCALER_CPUDIV64 . . . . . . . . E_CONST  ----- INT      -------  2
CLK_PRESCALER_CPUDIV128. . . . . . . . E_CONST  ----- INT      -------  2
CLK_Prescaler_TypeDef. . . . . . . . .  TYPEDEF ------- INT   -------     2
CLK_SWIMDIVIDER_2. . . . . . . . . . . E_CONST  ----- INT      -------  2
CLK_SWIMDIVIDER_OTHER. . . . . . . . . E_CONST  ----- INT      -------  2
CLK_SWIMDivider_TypeDef. . . . . . . .  TYPEDEF ------- INT   -------     2
CLK_DeInit . . . . . . . . . . . . . .  EXTERN  CODE    PROC    ------- -----
CLK_HSECmd . . . . . . . . . . . . . .  EXTERN  CODE    PROC    ------- -----
CLK_HSICmd . . . . . . . . . . . . . .  EXTERN  CODE    PROC    ------- -----
CLK_LSICmd . . . . . . . . . . . . . .  EXTERN  CODE    PROC    ------- -----
CLK_CCOCmd . . . . . . . . . . . . . .  EXTERN  CODE    PROC    ------- -----
CLK_ClockSwitchCmd . . . . . . . . . .  EXTERN  CODE    PROC    ------- -----
CLK_FastHaltWakeUpCmd. . . . . . . . .  EXTERN  CODE    PROC    ------- -----
CLK_SlowActiveHaltWakeUpCmd. . . . . .  EXTERN  CODE    PROC    ------- -----
CLK_PeripheralClockConfig. . . . . . .  EXTERN  CODE    PROC    ------- -----
CLK_ClockSwitchConfig. . . . . . . . .  EXTERN  CODE    PROC    ------- -----
CLK_HSIPrescalerConfig . . . . . . . .  EXTERN  CODE    PROC    ------- -----
CLK_CCOConfig. . . . . . . . . . . . .  EXTERN  CODE    PROC    ------- -----
CLK_ITConfig . . . . . . . . . . . . .  EXTERN  CODE    PROC    ------- -----
CLK_SYSCLKConfig . . . . . . . . . . .  EXTERN  CODE    PROC    ------- -----
CLK_SWIMConfig . . . . . . . . . . . .  EXTERN  CODE    PROC    ------- -----
CLK_ClockSecuritySystemEnable. . . . .  EXTERN  CODE    PROC    ------- -----
CLK_SYSCLKEmergencyClear . . . . . . .  EXTERN  CODE    PROC    ------- -----
CLK_AdjustHSICalibrationValue. . . . .  EXTERN  CODE    PROC    ------- -----
CLK_GetClockFreq . . . . . . . . . . .  EXTERN  CODE    PROC    ------- -----
CLK_GetSYSCLKSource. . . . . . . . . .  EXTERN  CODE    PROC    ------- -----
CLK_GetFlagStatus. . . . . . . . . . .  EXTERN  CODE    PROC    ------- -----
CLK_GetITStatus. . . . . . . . . . . .  EXTERN  CODE    PROC    ------- -----
CLK_ClearITPendingBit. . . . . . . . .  EXTERN  CODE    PROC    ------- -----
EXTI_SENSITIVITY_FALL_LOW. . . . . . . E_CONST  ----- INT      -------  2
EXTI_SENSITIVITY_RISE_ONLY . . . . . . E_CONST  ----- INT      -------  2
EXTI_SENSITIVITY_FALL_ONLY . . . . . . E_CONST  ----- INT      -------  2
EXTI_SENSITIVITY_RISE_FALL . . . . . . E_CONST  ----- INT      -------  2
EXTI_Sensitivity_TypeDef . . . . . . .  TYPEDEF ------- INT   -------     2
EXTI_TLISENSITIVITY_FALL_ONLY. . . . . E_CONST  ----- INT      -------  2
EXTI_TLISENSITIVITY_RISE_ONLY. . . . . E_CONST  ----- INT      -------  2
EXTI_TLISensitivity_TypeDef. . . . . .  TYPEDEF ------- INT   -------     2
EXTI_PORT_GPIOA. . . . . . . . . . . . E_CONST  ----- INT      -------  2
EXTI_PORT_GPIOB. . . . . . . . . . . . E_CONST  ----- INT      -------  2
EXTI_PORT_GPIOC. . . . . . . . . . . . E_CONST  ----- INT      -------  2
EXTI_PORT_GPIOD. . . . . . . . . . . . E_CONST  ----- INT      -------  2
EXTI_PORT_GPIOE. . . . . . . . . . . . E_CONST  ----- INT      -------  2
EXTI_Port_TypeDef. . . . . . . . . . .  TYPEDEF ------- INT   -------     2
EXTI_DeInit. . . . . . . . . . . . . .  EXTERN  CODE    PROC    ------- -----
EXTI_SetExtIntSensitivity. . . . . . .  EXTERN  CODE    PROC    ------- -----
EXTI_SetTLISensitivity . . . . . . . .  EXTERN  CODE    PROC    ------- -----
EXTI_GetExtIntSensitivity. . . . . . .  EXTERN  CODE    PROC    ------- -----
EXTI_GetTLISensitivity . . . . . . . .  EXTERN  CODE    PROC    ------- -----
GPIO_MODE_IN_FL_NO_IT. . . . . . . . . E_CONST  ----- INT      -------  2
GPIO_MODE_IN_PU_NO_IT. . . . . . . . . E_CONST  ----- INT      -------  2
GPIO_MODE_IN_FL_IT . . . . . . . . . . E_CONST  ----- INT      -------  2
GPIO_MODE_IN_PU_IT . . . . . . . . . . E_CONST  ----- INT      -------  2
GPIO_MODE_OUT_OD_LOW_FAST. . . . . . . E_CONST  ----- INT      -------  2
GPIO_MODE_OUT_PP_LOW_FAST. . . . . . . E_CONST  ----- INT      -------  2
GPIO_MODE_OUT_OD_LOW_SLOW. . . . . . . E_CONST  ----- INT      -------  2
GPIO_MODE_OUT_PP_LOW_SLOW. . . . . . . E_CONST  ----- INT      -------  2
GPIO_MODE_OUT_OD_HIZ_FAST. . . . . . . E_CONST  ----- INT      -------  2
GPIO_MODE_OUT_PP_HIGH_FAST . . . . . . E_CONST  ----- INT      -------  2
GPIO_MODE_OUT_OD_HIZ_SLOW. . . . . . . E_CONST  ----- INT      -------  2
GPIO_MODE_OUT_PP_HIGH_SLOW . . . . . . E_CONST  ----- INT      -------  2
GPIO_Mode_TypeDef. . . . . . . . . . .  TYPEDEF ------- INT   -------     2
GPIO_PIN_0 . . . . . . . . . . . . . . E_CONST  ----- INT      -------  2
GPIO_PIN_1 . . . . . . . . . . . . . . E_CONST  ----- INT      -------  2
GPIO_PIN_2 . . . . . . . . . . . . . . E_CONST  ----- INT      -------  2
GPIO_PIN_3 . . . . . . . . . . . . . . E_CONST  ----- INT      -------  2
GPIO_PIN_4 . . . . . . . . . . . . . . E_CONST  ----- INT      -------  2
GPIO_PIN_5 . . . . . . . . . . . . . . E_CONST  ----- INT      -------  2
GPIO_PIN_6 . . . . . . . . . . . . . . E_CONST  ----- INT      -------  2
GPIO_PIN_7 . . . . . . . . . . . . . . E_CONST  ----- INT      -------  2
GPIO_PIN_LNIB. . . . . . . . . . . . . E_CONST  ----- INT      -------  2
GPIO_PIN_HNIB. . . . . . . . . . . . . E_CONST  ----- INT      -------  2
GPIO_PIN_ALL . . . . . . . . . . . . . E_CONST  ----- INT      -------  2
GPIO_Pin_TypeDef . . . . . . . . . . .  TYPEDEF ------- INT   -------     2
GPIO_DeInit. . . . . . . . . . . . . .  EXTERN  CODE    PROC    ------- -----
GPIO_Init. . . . . . . . . . . . . . .  EXTERN  CODE    PROC    ------- -----
GPIO_Write . . . . . . . . . . . . . .  EXTERN  CODE    PROC    ------- -----
GPIO_WriteHigh . . . . . . . . . . . .  EXTERN  CODE    PROC    ------- -----
GPIO_WriteLow. . . . . . . . . . . . .  EXTERN  CODE    PROC    ------- -----
GPIO_WriteReverse. . . . . . . . . . .  EXTERN  CODE    PROC    ------- -----
GPIO_ReadInputData . . . . . . . . . .  EXTERN  CODE    PROC    ------- -----
GPIO_ReadOutputData. . . . . . . . . .  EXTERN  CODE    PROC    ------- -----
GPIO_ReadInputPin. . . . . . . . . . .  EXTERN  CODE    PROC    ------- -----
GPIO_ExternalPullUpConfig. . . . . . .  EXTERN  CODE    PROC    ------- -----
SPI_DATADIRECTION_2LINES_FULLDUPLEX. . E_CONST  ----- INT      -------  2
SPI_DATADIRECTION_2LINES_RXONLY. . . . E_CONST  ----- INT      -------  2
SPI_DATADIRECTION_1LINE_RX . . . . . . E_CONST  ----- INT      -------  2
SPI_DATADIRECTION_1LINE_TX . . . . . . E_CONST  ----- INT      -------  2
SPI_DataDirection_TypeDef. . . . . . .  TYPEDEF ------- INT   -------     2
SPI_NSS_SOFT . . . . . . . . . . . . . E_CONST  ----- INT      -------  2
SPI_NSS_HARD . . . . . . . . . . . . . E_CONST  ----- INT      -------  2
SPI_NSS_TypeDef. . . . . . . . . . . .  TYPEDEF ------- INT   -------     2
SPI_DIRECTION_RX . . . . . . . . . . . E_CONST  ----- INT      -------  2
SPI_DIRECTION_TX . . . . . . . . . . . E_CONST  ----- INT      -------  2
SPI_Direction_TypeDef. . . . . . . . .  TYPEDEF ------- INT   -------     2
SPI_MODE_MASTER. . . . . . . . . . . . E_CONST  ----- INT      -------  2
SPI_MODE_SLAVE . . . . . . . . . . . . E_CONST  ----- INT      -------  2
SPI_Mode_TypeDef . . . . . . . . . . .  TYPEDEF ------- INT   -------     2
SPI_BAUDRATEPRESCALER_2. . . . . . . . E_CONST  ----- INT      -------  2
SPI_BAUDRATEPRESCALER_4. . . . . . . . E_CONST  ----- INT      -------  2
SPI_BAUDRATEPRESCALER_8. . . . . . . . E_CONST  ----- INT      -------  2
SPI_BAUDRATEPRESCALER_16 . . . . . . . E_CONST  ----- INT      -------  2
SPI_BAUDRATEPRESCALER_32 . . . . . . . E_CONST  ----- INT      -------  2
SPI_BAUDRATEPRESCALER_64 . . . . . . . E_CONST  ----- INT      -------  2
SPI_BAUDRATEPRESCALER_128. . . . . . . E_CONST  ----- INT      -------  2
SPI_BAUDRATEPRESCALER_256. . . . . . . E_CONST  ----- INT      -------  2
SPI_BaudRatePrescaler_TypeDef. . . . .  TYPEDEF ------- INT   -------     2
SPI_CLOCKPOLARITY_LOW. . . . . . . . . E_CONST  ----- INT      -------  2
SPI_CLOCKPOLARITY_HIGH . . . . . . . . E_CONST  ----- INT      -------  2
SPI_ClockPolarity_TypeDef. . . . . . .  TYPEDEF ------- INT   -------     2
SPI_CLOCKPHASE_1EDGE . . . . . . . . . E_CONST  ----- INT      -------  2
SPI_CLOCKPHASE_2EDGE . . . . . . . . . E_CONST  ----- INT      -------  2
SPI_ClockPhase_TypeDef . . . . . . . .  TYPEDEF ------- INT   -------     2
SPI_FIRSTBIT_MSB . . . . . . . . . . . E_CONST  ----- INT      -------  2
SPI_FIRSTBIT_LSB . . . . . . . . . . . E_CONST  ----- INT      -------  2
SPI_FirstBit_TypeDef . . . . . . . . .  TYPEDEF ------- INT   -------     2
SPI_CRC_RX . . . . . . . . . . . . . . E_CONST  ----- INT      -------  2
SPI_CRC_TX . . . . . . . . . . . . . . E_CONST  ----- INT      -------  2
SPI_CRC_TypeDef. . . . . . . . . . . .  TYPEDEF ------- INT   -------     2
SPI_FLAG_BSY . . . . . . . . . . . . . E_CONST  ----- INT      -------  2
SPI_FLAG_OVR . . . . . . . . . . . . . E_CONST  ----- INT      -------  2
SPI_FLAG_MODF. . . . . . . . . . . . . E_CONST  ----- INT      -------  2
SPI_FLAG_CRCERR. . . . . . . . . . . . E_CONST  ----- INT      -------  2
SPI_FLAG_WKUP. . . . . . . . . . . . . E_CONST  ----- INT      -------  2
SPI_FLAG_TXE . . . . . . . . . . . . . E_CONST  ----- INT      -------  2
SPI_FLAG_RXNE. . . . . . . . . . . . . E_CONST  ----- INT      -------  2
SPI_Flag_TypeDef . . . . . . . . . . .  TYPEDEF ------- INT   -------     2
SPI_IT_WKUP. . . . . . . . . . . . . . E_CONST  ----- INT      -------  2
SPI_IT_OVR . . . . . . . . . . . . . . E_CONST  ----- INT      -------  2
SPI_IT_MODF. . . . . . . . . . . . . . E_CONST  ----- INT      -------  2
SPI_IT_CRCERR. . . . . . . . . . . . . E_CONST  ----- INT      -------  2
SPI_IT_TXE . . . . . . . . . . . . . . E_CONST  ----- INT      -------  2
SPI_IT_RXNE. . . . . . . . . . . . . . E_CONST  ----- INT      -------  2
SPI_IT_ERR . . . . . . . . . . . . . . E_CONST  ----- INT      -------  2
SPI_IT_TypeDef . . . . . . . . . . . .  TYPEDEF ------- INT   -------     2
SPI_DeInit . . . . . . . . . . . . . .  EXTERN  CODE    PROC    ------- -----
SPI_Init . . . . . . . . . . . . . . .  EXTERN  CODE    PROC    ------- -----
SPI_Cmd. . . . . . . . . . . . . . . .  EXTERN  CODE    PROC    ------- -----
SPI_ITConfig . . . . . . . . . . . . .  EXTERN  CODE    PROC    ------- -----
SPI_SendData . . . . . . . . . . . . .  EXTERN  CODE    PROC    ------- -----
SPI_ReceiveData. . . . . . . . . . . .  EXTERN  CODE    PROC    ------- -----
SPI_NSSInternalSoftwareCmd . . . . . .  EXTERN  CODE    PROC    ------- -----
SPI_TransmitCRC. . . . . . . . . . . .  EXTERN  CODE    PROC    ------- -----
SPI_CalculateCRCCmd. . . . . . . . . .  EXTERN  CODE    PROC    ------- -----
SPI_GetCRC . . . . . . . . . . . . . .  EXTERN  CODE    PROC    ------- -----
SPI_ResetCRC . . . . . . . . . . . . .  EXTERN  CODE    PROC    ------- -----
SPI_GetCRCPolynomial . . . . . . . . .  EXTERN  CODE    PROC    ------- -----
SPI_BiDirectionalLineConfig. . . . . .  EXTERN  CODE    PROC    ------- -----
SPI_GetFlagStatus. . . . . . . . . . .  EXTERN  CODE    PROC    ------- -----
SPI_ClearFlag. . . . . . . . . . . . .  EXTERN  CODE    PROC    ------- -----
SPI_GetITStatus. . . . . . . . . . . .  EXTERN  CODE    PROC    ------- -----
SPI_ClearITPendingBit. . . . . . . . .  EXTERN  CODE    PROC    ------- -----
TIM4_PRESCALER_1 . . . . . . . . . . . E_CONST  ----- INT      -------  2
TIM4_PRESCALER_2 . . . . . . . . . . . E_CONST  ----- INT      -------  2
TIM4_PRESCALER_4 . . . . . . . . . . . E_CONST  ----- INT      -------  2
TIM4_PRESCALER_8 . . . . . . . . . . . E_CONST  ----- INT      -------  2
TIM4_PRESCALER_16. . . . . . . . . . . E_CONST  ----- INT      -------  2
TIM4_PRESCALER_32. . . . . . . . . . . E_CONST  ----- INT      -------  2
TIM4_PRESCALER_64. . . . . . . . . . . E_CONST  ----- INT      -------  2
TIM4_PRESCALER_128 . . . . . . . . . . E_CONST  ----- INT      -------  2
TIM4_Prescaler_TypeDef . . . . . . . .  TYPEDEF ------- INT   -------     2
TIM4_OPMODE_SINGLE . . . . . . . . . . E_CONST  ----- INT      -------  2
TIM4_OPMODE_REPETITIVE . . . . . . . . E_CONST  ----- INT      -------  2
TIM4_OPMode_TypeDef. . . . . . . . . .  TYPEDEF ------- INT   -------     2
TIM4_PSCRELOADMODE_UPDATE. . . . . . . E_CONST  ----- INT      -------  2
TIM4_PSCRELOADMODE_IMMEDIATE . . . . . E_CONST  ----- INT      -------  2
TIM4_PSCReloadMode_TypeDef . . . . . .  TYPEDEF ------- INT   -------     2
TIM4_UPDATESOURCE_GLOBAL . . . . . . . E_CONST  ----- INT      -------  2
TIM4_UPDATESOURCE_REGULAR. . . . . . . E_CONST  ----- INT      -------  2
TIM4_UpdateSource_TypeDef. . . . . . .  TYPEDEF ------- INT   -------     2
TIM4_EVENTSOURCE_UPDATE. . . . . . . . E_CONST  ----- INT      -------  2
TIM4_EventSource_TypeDef . . . . . . .  TYPEDEF ------- INT   -------     2
TIM4_FLAG_UPDATE . . . . . . . . . . . E_CONST  ----- INT      -------  2
TIM4_FLAG_TypeDef. . . . . . . . . . .  TYPEDEF ------- INT   -------     2
TIM4_IT_UPDATE . . . . . . . . . . . . E_CONST  ----- INT      -------  2
TIM4_IT_TypeDef. . . . . . . . . . . .  TYPEDEF ------- INT   -------     2
TIM4_DeInit. . . . . . . . . . . . . .  EXTERN  CODE    PROC    ------- -----
TIM4_TimeBaseInit. . . . . . . . . . .  EXTERN  CODE    PROC    ------- -----
TIM4_Cmd . . . . . . . . . . . . . . .  EXTERN  CODE    PROC    ------- -----
TIM4_ITConfig. . . . . . . . . . . . .  EXTERN  CODE    PROC    ------- -----
TIM4_UpdateDisableConfig . . . . . . .  EXTERN  CODE    PROC    ------- -----
TIM4_UpdateRequestConfig . . . . . . .  EXTERN  CODE    PROC    ------- -----
TIM4_SelectOnePulseMode. . . . . . . .  EXTERN  CODE    PROC    ------- -----
TIM4_PrescalerConfig . . . . . . . . .  EXTERN  CODE    PROC    ------- -----
TIM4_ARRPreloadConfig. . . . . . . . .  EXTERN  CODE    PROC    ------- -----
TIM4_GenerateEvent . . . . . . . . . .  EXTERN  CODE    PROC    ------- -----
TIM4_SetCounter. . . . . . . . . . . .  EXTERN  CODE    PROC    ------- -----
TIM4_SetAutoreload . . . . . . . . . .  EXTERN  CODE    PROC    ------- -----
TIM4_GetCounter. . . . . . . . . . . .  EXTERN  CODE    PROC    ------- -----
TIM4_GetPrescaler. . . . . . . . . . .  EXTERN  CODE    PROC    ------- -----
TIM4_GetFlagStatus . . . . . . . . . .  EXTERN  CODE    PROC    ------- -----
TIM4_ClearFlag . . . . . . . . . . . .  EXTERN  CODE    PROC    ------- -----
TIM4_GetITStatus . . . . . . . . . . .  EXTERN  CODE    PROC    ------- -----
TIM4_ClearITPendingBit . . . . . . . .  EXTERN  CODE    PROC    ------- -----
UART3_WAKEUP_IDLELINE. . . . . . . . . E_CONST  ----- INT      -------  2
UART3_WAKEUP_ADDRESSMARK . . . . . . . E_CONST  ----- INT      -------  2
UART3_WakeUp_TypeDef . . . . . . . . .  TYPEDEF ------- INT   -------     2
UART3_LINBREAKDETECTIONLENGTH_10BITS . E_CONST  ----- INT      -------  2
UART3_LINBREAKDETECTIONLENGTH_11BITS . E_CONST  ----- INT      -------  2
UART3_LINBreakDetectionLength_TypeDef.  TYPEDEF ------- INT   -------     2
UART3_STOPBITS_1 . . . . . . . . . . . E_CONST  ----- INT      -------  2
UART3_STOPBITS_2 . . . . . . . . . . . E_CONST  ----- INT      -------  2
UART3_StopBits_TypeDef . . . . . . . .  TYPEDEF ------- INT   -------     2
UART3_PARITY_NO. . . . . . . . . . . . E_CONST  ----- INT      -------  2
UART3_PARITY_EVEN. . . . . . . . . . . E_CONST  ----- INT      -------  2
UART3_PARITY_ODD . . . . . . . . . . . E_CONST  ----- INT      -------  2
UART3_Parity_TypeDef . . . . . . . . .  TYPEDEF ------- INT   -------     2
UART3_WORDLENGTH_8D. . . . . . . . . . E_CONST  ----- INT      -------  2
UART3_WORDLENGTH_9D. . . . . . . . . . E_CONST  ----- INT      -------  2
UART3_WordLength_TypeDef . . . . . . .  TYPEDEF ------- INT   -------     2
UART3_MODE_RX_ENABLE . . . . . . . . . E_CONST  ----- INT      -------  2
UART3_MODE_TX_ENABLE . . . . . . . . . E_CONST  ----- INT      -------  2
UART3_MODE_TX_DISABLE. . . . . . . . . E_CONST  ----- INT      -------  2
UART3_MODE_RX_DISABLE. . . . . . . . . E_CONST  ----- INT      -------  2
UART3_MODE_TXRX_ENABLE . . . . . . . . E_CONST  ----- INT      -------  2
UART3_Mode_TypeDef . . . . . . . . . .  TYPEDEF ------- INT   -------     2
UART3_LIN_MODE_MASTER. . . . . . . . . E_CONST  ----- INT      -------  2
UART3_LIN_MODE_SLAVE . . . . . . . . . E_CONST  ----- INT      -------  2
UART3_LinMode_TypeDef. . . . . . . . .  TYPEDEF ------- INT   -------     2
UART3_LIN_AUTOSYNC_DISABLE . . . . . . E_CONST  ----- INT      -------  2
UART3_LIN_AUTOSYNC_ENABLE. . . . . . . E_CONST  ----- INT      -------  2
UART3_LinAutosync_TypeDef. . . . . . .  TYPEDEF ------- INT   -------     2
UART3_LIN_DIVUP_LBRR1. . . . . . . . . E_CONST  ----- INT      -------  2
UART3_LIN_DIVUP_NEXTRXNE . . . . . . . E_CONST  ----- INT      -------  2
UART3_LinDivUp_TypeDef . . . . . . . .  TYPEDEF ------- INT   -------     2
UART3_FLAG_TXE . . . . . . . . . . . . E_CONST  ----- INT      -------  2
UART3_FLAG_TC. . . . . . . . . . . . . E_CONST  ----- INT      -------  2
UART3_FLAG_RXNE. . . . . . . . . . . . E_CONST  ----- INT      -------  2
UART3_FLAG_IDLE. . . . . . . . . . . . E_CONST  ----- INT      -------  2
UART3_FLAG_OR_LHE. . . . . . . . . . . E_CONST  ----- INT      -------  2
UART3_FLAG_NF. . . . . . . . . . . . . E_CONST  ----- INT      -------  2
UART3_FLAG_FE. . . . . . . . . . . . . E_CONST  ----- INT      -------  2
UART3_FLAG_PE. . . . . . . . . . . . . E_CONST  ----- INT      -------  2
UART3_FLAG_SBK . . . . . . . . . . . . E_CONST  ----- INT      -------  2
UART3_FLAG_LBDF. . . . . . . . . . . . E_CONST  ----- INT      -------  2
UART3_FLAG_LHDF. . . . . . . . . . . . E_CONST  ----- INT      -------  2
UART3_FLAG_LSF . . . . . . . . . . . . E_CONST  ----- INT      -------  2
UART3_Flag_TypeDef . . . . . . . . . .  TYPEDEF ------- INT   -------     2
UART3_IT_TXE . . . . . . . . . . . . . E_CONST  ----- INT      -------  2
UART3_IT_TC. . . . . . . . . . . . . . E_CONST  ----- INT      -------  2
UART3_IT_RXNE. . . . . . . . . . . . . E_CONST  ----- INT      -------  2
UART3_IT_IDLE. . . . . . . . . . . . . E_CONST  ----- INT      -------  2
UART3_IT_OR. . . . . . . . . . . . . . E_CONST  ----- INT      -------  2
UART3_IT_PE. . . . . . . . . . . . . . E_CONST  ----- INT      -------  2
UART3_IT_LBDF. . . . . . . . . . . . . E_CONST  ----- INT      -------  2
UART3_IT_LHDF. . . . . . . . . . . . . E_CONST  ----- INT      -------  2
UART3_IT_RXNE_OR . . . . . . . . . . . E_CONST  ----- INT      -------  2
UART3_IT_TypeDef . . . . . . . . . . .  TYPEDEF ------- INT   -------     2
UART3_DeInit . . . . . . . . . . . . .  EXTERN  CODE    PROC    ------- -----
UART3_Init . . . . . . . . . . . . . .  EXTERN  CODE    PROC    ------- -----
UART3_Cmd. . . . . . . . . . . . . . .  EXTERN  CODE    PROC    ------- -----
UART3_ITConfig . . . . . . . . . . . .  EXTERN  CODE    PROC    ------- -----
UART3_LINBreakDetectionConfig. . . . .  EXTERN  CODE    PROC    ------- -----
UART3_LINConfig. . . . . . . . . . . .  EXTERN  CODE    PROC    ------- -----
UART3_LINCmd . . . . . . . . . . . . .  EXTERN  CODE    PROC    ------- -----
UART3_ReceiverWakeUpCmd. . . . . . . .  EXTERN  CODE    PROC    ------- -----
UART3_WakeUpConfig . . . . . . . . . .  EXTERN  CODE    PROC    ------- -----
UART3_ReceiveData8 . . . . . . . . . .  EXTERN  CODE    PROC    ------- -----
UART3_ReceiveData9 . . . . . . . . . .  EXTERN  CODE    PROC    ------- -----
UART3_SendData8. . . . . . . . . . . .  EXTERN  CODE    PROC    ------- -----
UART3_SendData9. . . . . . . . . . . .  EXTERN  CODE    PROC    ------- -----
UART3_SendBreak. . . . . . . . . . . .  EXTERN  CODE    PROC    ------- -----
UART3_SetAddress . . . . . . . . . . .  EXTERN  CODE    PROC    ------- -----
UART3_GetFlagStatus. . . . . . . . . .  EXTERN  CODE    PROC    ------- -----
UART3_ClearFlag. . . . . . . . . . . .  EXTERN  CODE    PROC    ------- -----
UART3_GetITStatus. . . . . . . . . . .  EXTERN  CODE    PROC    ------- -----
UART3_ClearITPendingBit. . . . . . . .  EXTERN  CODE    PROC    ------- -----
assert_failed. . . . . . . . . . . . .  EXTERN  CODE    PROC    ------- -----
_fctptr_t. . . . . . . . . . . . . . .  TYPEDEF ------- PTR     -------     2
_halt_ . . . . . . . . . . . . . . . .  EXTERN  CODE    PROC    ------- -----
_jmp_. . . . . . . . . . . . . . . . .  EXTERN  CODE    PROC    ------- -----
_nop_. . . . . . . . . . . . . . . . .  EXTERN  CODE    PROC    ------- -----
_rim_. . . . . . . . . . . . . . . . .  EXTERN  CODE    PROC    ------- -----
_sim_. . . . . . . . . . . . . . . . .  EXTERN  CODE    PROC    ------- -----
_trap_ . . . . . . . . . . . . . . . .  EXTERN  CODE    PROC    ------- -----
_wfe_. . . . . . . . . . . . . . . . .  EXTERN  CODE    PROC    ------- -----
_wfi_. . . . . . . . . . . . . . . . .  EXTERN  CODE    PROC    ------- -----
_getCC_. . . . . . . . . . . . . . . .  EXTERN  CODE    PROC    ------- -----
_setCC_. . . . . . . . . . . . . . . .  EXTERN  CODE    PROC    ------- -----
_getSP_. . . . . . . . . . . . . . . .  EXTERN  CODE    PROC    ------- -----
_setSP_. . . . . . . . . . . . . . . .  EXTERN  CODE    PROC    ------- -----
_swapbyte_ . . . . . . . . . . . . . .  EXTERN  CODE    PROC    ------- -----
_swapnibble_ . . . . . . . . . . . . .  EXTERN  CODE    PROC    ------- -----
CAN_Page_TxMailBox0. . . . . . . . . . E_CONST  ----- INT      -------  2
CAN_Page_TxMailBox1. . . . . . . . . . E_CONST  ----- INT      -------  2
CAN_Page_TxMailBox2. . . . . . . . . . E_CONST  ----- INT      -------  2
CAN_Page_Filter01. . . . . . . . . . . E_CONST  ----- INT      -------  2
CAN_Page_Filter23. . . . . . . . . . . E_CONST  ----- INT      -------  2
CAN_Page_Filter45. . . . . . . . . . . E_CONST  ----- INT      -------  2
CAN_Page_Config. . . . . . . . . . . . E_CONST  ----- INT      -------  2
CAN_Page_RxFifo. . . . . . . . . . . . E_CONST  ----- INT      -------  2
CAN_Page_TypeDef . . . . . . . . . . .  TYPEDEF ------- INT   -------     2
CAN_InitStatus_Failed. . . . . . . . . E_CONST  ----- INT      -------  2
CAN_InitStatus_Success . . . . . . . . E_CONST  ----- INT      -------  2
CAN_InitStatus_TypeDef . . . . . . . .  TYPEDEF ------- INT   -------     2
CAN_OperatingMode_Initialization . . . E_CONST  ----- INT      -------  2
CAN_OperatingMode_Normal . . . . . . . E_CONST  ----- INT      -------  2
CAN_OperatingMode_Sleep. . . . . . . . E_CONST  ----- INT      -------  2
CAN_OperatingMode_TypeDef. . . . . . .  TYPEDEF ------- INT   -------     2
CAN_ModeStatus_Failed. . . . . . . . . E_CONST  ----- INT      -------  2
CAN_ModeStatus_Success . . . . . . . . E_CONST  ----- INT      -------  2
CAN_ModeStatus_TypeDef . . . . . . . .  TYPEDEF ------- INT   -------     2
CAN_MasterCtrl_AllDisabled . . . . . . E_CONST  ----- INT      -------  2
CAN_MasterCtrl_AllEnabled. . . . . . . E_CONST  ----- INT      -------  2
CAN_MasterCtrl_TimeTriggerCOMMode. . . E_CONST  ----- INT      -------  2
CAN_MasterCtrl_AutoBusOffManagement. . E_CONST  ----- INT      -------  2
CAN_MasterCtrl_AutoWakeUpMode. . . . . E_CONST  ----- INT      -------  2
CAN_MasterCtrl_NoAutoReTx. . . . . . . E_CONST  ----- INT      -------  2
CAN_MasterCtrl_RxFifoLockedMode. . . . E_CONST  ----- INT      -------  2
CAN_MasterCtrl_TxFifoPriority. . . . . E_CONST  ----- INT      -------  2
CAN_MasterCtrl_TypeDef . . . . . . . .  TYPEDEF ------- INT   -------     2
CAN_Mode_Normal. . . . . . . . . . . . E_CONST  ----- INT      -------  2
CAN_Mode_LoopBack. . . . . . . . . . . E_CONST  ----- INT      -------  2
CAN_Mode_Silent. . . . . . . . . . . . E_CONST  ----- INT      -------  2
CAN_Mode_Silent_LoopBack . . . . . . . E_CONST  ----- INT      -------  2
CAN_Mode_TypeDef . . . . . . . . . . .  TYPEDEF ------- INT   -------     2
CAN_SynJumpWidth_1TimeQuantum. . . . . E_CONST  ----- INT      -------  2
CAN_SynJumpWidth_2TimeQuantum. . . . . E_CONST  ----- INT      -------  2
CAN_SynJumpWidth_3TimeQuantum. . . . . E_CONST  ----- INT      -------  2
CAN_SynJumpWidth_4TimeQuantum. . . . . E_CONST  ----- INT      -------  2
CAN_SynJumpWidth_TypeDef . . . . . . .  TYPEDEF ------- INT   -------     2
CAN_BitSeg1_1TimeQuantum . . . . . . . E_CONST  ----- INT      -------  2
CAN_BitSeg1_2TimeQuantum . . . . . . . E_CONST  ----- INT      -------  2
CAN_BitSeg1_3TimeQuantum . . . . . . . E_CONST  ----- INT      -------  2
CAN_BitSeg1_4TimeQuantum . . . . . . . E_CONST  ----- INT      -------  2
CAN_BitSeg1_5TimeQuantum . . . . . . . E_CONST  ----- INT      -------  2
CAN_BitSeg1_6TimeQuantum . . . . . . . E_CONST  ----- INT      -------  2
CAN_BitSeg1_7TimeQuantum . . . . . . . E_CONST  ----- INT      -------  2
CAN_BitSeg1_8TimeQuantum . . . . . . . E_CONST  ----- INT      -------  2
CAN_BitSeg1_9TimeQuantum . . . . . . . E_CONST  ----- INT      -------  2
CAN_BitSeg1_10TimeQuantum. . . . . . . E_CONST  ----- INT      -------  2
CAN_BitSeg1_11TimeQuantum. . . . . . . E_CONST  ----- INT      -------  2
CAN_BitSeg1_12TimeQuantum. . . . . . . E_CONST  ----- INT      -------  2
CAN_BitSeg1_13TimeQuantum. . . . . . . E_CONST  ----- INT      -------  2
CAN_BitSeg1_14TimeQuantum. . . . . . . E_CONST  ----- INT      -------  2
CAN_BitSeg1_15TimeQuantum. . . . . . . E_CONST  ----- INT      -------  2
CAN_BitSeg1_16TimeQuantum. . . . . . . E_CONST  ----- INT      -------  2
CAN_BitSeg1_TypeDef. . . . . . . . . .  TYPEDEF ------- INT   -------     2
CAN_BitSeg2_1TimeQuantum . . . . . . . E_CONST  ----- INT      -------  2
CAN_BitSeg2_2TimeQuantum . . . . . . . E_CONST  ----- INT      -------  2
CAN_BitSeg2_3TimeQuantum . . . . . . . E_CONST  ----- INT      -------  2
CAN_BitSeg2_4TimeQuantum . . . . . . . E_CONST  ----- INT      -------  2
CAN_BitSeg2_5TimeQuantum . . . . . . . E_CONST  ----- INT      -------  2
CAN_BitSeg2_6TimeQuantum . . . . . . . E_CONST  ----- INT      -------  2
CAN_BitSeg2_7TimeQuantum . . . . . . . E_CONST  ----- INT      -------  2
CAN_BitSeg2_8TimeQuantum . . . . . . . E_CONST  ----- INT      -------  2
CAN_BitSeg2_TypeDef. . . . . . . . . .  TYPEDEF ------- INT   -------     2
CAN_FilterNumber_0 . . . . . . . . . . E_CONST  ----- INT      -------  2
CAN_FilterNumber_1 . . . . . . . . . . E_CONST  ----- INT      -------  2
CAN_FilterNumber_2 . . . . . . . . . . E_CONST  ----- INT      -------  2
CAN_FilterNumber_3 . . . . . . . . . . E_CONST  ----- INT      -------  2
CAN_FilterNumber_4 . . . . . . . . . . E_CONST  ----- INT      -------  2
CAN_FilterNumber_5 . . . . . . . . . . E_CONST  ----- INT      -------  2
CAN_FilterNumber_TypeDef . . . . . . .  TYPEDEF ------- INT   -------     2
CAN_FilterMode_IdMask. . . . . . . . . E_CONST  ----- INT      -------  2
CAN_FilterMode_IdMask_IdList . . . . . E_CONST  ----- INT      -------  2
CAN_FilterMode_IdList_IdMask . . . . . E_CONST  ----- INT      -------  2
CAN_FilterMode_IdList. . . . . . . . . E_CONST  ----- INT      -------  2
CAN_FilterMode_TypeDef . . . . . . . .  TYPEDEF ------- INT   -------     2
CAN_FilterScale_8Bit . . . . . . . . . E_CONST  ----- INT      -------  2
CAN_FilterScale_16_8Bit. . . . . . . . E_CONST  ----- INT      -------  2
CAN_FilterScale_16Bit. . . . . . . . . E_CONST  ----- INT      -------  2
CAN_FilterScale_32Bit. . . . . . . . . E_CONST  ----- INT      -------  2
CAN_FilterScale_TypeDef. . . . . . . .  TYPEDEF ------- INT   -------     2
CAN_TransmitMailBox_0. . . . . . . . . E_CONST  ----- INT      -------  2
CAN_TransmitMailBox_1. . . . . . . . . E_CONST  ----- INT      -------  2
CAN_TransmitMailBox_2. . . . . . . . . E_CONST  ----- INT      -------  2
CAN_TransmitMailBox_TypeDef. . . . . .  TYPEDEF ------- INT   -------     2
CAN_NbrPendingMessage_0. . . . . . . . E_CONST  ----- INT      -------  2
CAN_NbrPendingMessage_1. . . . . . . . E_CONST  ----- INT      -------  2
CAN_NbrPendingMessage_2. . . . . . . . E_CONST  ----- INT      -------  2
CAN_NbrPendingMessage_3. . . . . . . . E_CONST  ----- INT      -------  2
CAN_NbrPendingMessage_TypeDef. . . . .  TYPEDEF ------- INT   -------     2
CAN_Id_Standard. . . . . . . . . . . . E_CONST  ----- INT      -------  2
CAN_Id_Extended. . . . . . . . . . . . E_CONST  ----- INT      -------  2
CAN_Id_TypeDef . . . . . . . . . . . .  TYPEDEF ------- INT   -------     2
CAN_RTR_Data . . . . . . . . . . . . . E_CONST  ----- INT      -------  2
CAN_RTR_Remote . . . . . . . . . . . . E_CONST  ----- INT      -------  2
CAN_RTR_TypeDef. . . . . . . . . . . .  TYPEDEF ------- INT   -------     2
CAN_TxStatus_Failed. . . . . . . . . . E_CONST  ----- INT      -------  2
CAN_TxStatus_Ok. . . . . . . . . . . . E_CONST  ----- INT      -------  2
CAN_TxStatus_Pending . . . . . . . . . E_CONST  ----- INT      -------  2
CAN_TxStatus_NoMailBox . . . . . . . . E_CONST  ----- INT      -------  2
CAN_TxStatus_MailBoxEmpty. . . . . . . E_CONST  ----- INT      -------  2
CAN_TxStatus_MailBox0Ok. . . . . . . . E_CONST  ----- INT      -------  2
CAN_TxStatus_MailBox1Ok. . . . . . . . E_CONST  ----- INT      -------  2
CAN_TxStatus_MailBox2Ok. . . . . . . . E_CONST  ----- INT      -------  2
CAN_TxStatus_TypeDef . . . . . . . . .  TYPEDEF ------- INT   -------     2
CAN_Sleep_Failed . . . . . . . . . . . E_CONST  ----- INT      -------  2
CAN_Sleep_Ok . . . . . . . . . . . . . E_CONST  ----- INT      -------  2
CAN_Sleep_TypeDef. . . . . . . . . . .  TYPEDEF ------- INT   -------     2
CAN_WakeUp_Failed. . . . . . . . . . . E_CONST  ----- INT      -------  2
CAN_WakeUp_Ok. . . . . . . . . . . . . E_CONST  ----- INT      -------  2
CAN_WakeUp_TypeDef . . . . . . . . . .  TYPEDEF ------- INT   -------     2
CAN_FLAG_RQCP0 . . . . . . . . . . . . E_CONST  ----- INT      -------  2
CAN_FLAG_RQCP1 . . . . . . . . . . . . E_CONST  ----- INT      -------  2
CAN_FLAG_RQCP2 . . . . . . . . . . . . E_CONST  ----- INT      -------  2
CAN_FLAG_FMP . . . . . . . . . . . . . E_CONST  ----- INT      -------  2
CAN_FLAG_FF. . . . . . . . . . . . . . E_CONST  ----- INT      -------  2
CAN_FLAG_FOV . . . . . . . . . . . . . E_CONST  ----- INT      -------  2
CAN_FLAG_WKU . . . . . . . . . . . . . E_CONST  ----- INT      -------  2
CAN_FLAG_EWG . . . . . . . . . . . . . E_CONST  ----- INT      -------  2
CAN_FLAG_EPV . . . . . . . . . . . . . E_CONST  ----- INT      -------  2
CAN_FLAG_BOF . . . . . . . . . . . . . E_CONST  ----- INT      -------  2
CAN_FLAG_LEC . . . . . . . . . . . . . E_CONST  ----- INT      -------  2
CAN_FLAG_TypeDef . . . . . . . . . . .  TYPEDEF ------- INT   -------     2
CAN_IT_TME . . . . . . . . . . . . . . E_CONST  ----- INT      -------  2
CAN_IT_FMP . . . . . . . . . . . . . . E_CONST  ----- INT      -------  2
CAN_IT_FF. . . . . . . . . . . . . . . E_CONST  ----- INT      -------  2
CAN_IT_FOV . . . . . . . . . . . . . . E_CONST  ----- INT      -------  2
CAN_IT_WKU . . . . . . . . . . . . . . E_CONST  ----- INT      -------  2
CAN_IT_ERR . . . . . . . . . . . . . . E_CONST  ----- INT      -------  2
CAN_IT_EWG . . . . . . . . . . . . . . E_CONST  ----- INT      -------  2
CAN_IT_EPV . . . . . . . . . . . . . . E_CONST  ----- INT      -------  2
CAN_IT_BOF . . . . . . . . . . . . . . E_CONST  ----- INT      -------  2
CAN_IT_LEC . . . . . . . . . . . . . . E_CONST  ----- INT      -------  2
CAN_IT_TypeDef . . . . . . . . . . . .  TYPEDEF ------- INT   -------     2
CAN_ST7Compatibility_Enable. . . . . . E_CONST  ----- INT      -------  2
CAN_ST7Compatibility_Disable . . . . . E_CONST  ----- INT      -------  2
CAN_ST7Compatibility_TypeDef . . . . .  TYPEDEF ------- INT   -------     2
CAN_ErrorCode_NoErr. . . . . . . . . . E_CONST  ----- INT      -------  2
CAN_ErrorCode_StuffErr . . . . . . . . E_CONST  ----- INT      -------  2
CAN_ErrorCode_FormErr. . . . . . . . . E_CONST  ----- INT      -------  2
CAN_ErrorCode_ACKErr . . . . . . . . . E_CONST  ----- INT      -------  2
CAN_ErrorCode_BitRecessiveErr. . . . . E_CONST  ----- INT      -------  2
CAN_ErrorCode_BitDominantErr . . . . . E_CONST  ----- INT      -------  2
CAN_ErrorCode_CRCErr . . . . . . . . . E_CONST  ----- INT      -------  2
CAN_ErrorCode_SoftwareSetErr . . . . . E_CONST  ----- INT      -------  2
CAN_ErrorCode_TypeDef. . . . . . . . .  TYPEDEF ------- INT   -------     2
CAN_DeInit . . . . . . . . . . . . . .  EXTERN  CODE    PROC    ------- -----
CAN_Init . . . . . . . . . . . . . . .  EXTERN  CODE    PROC    ------- -----
CAN_FilterInit . . . . . . . . . . . .  EXTERN  CODE    PROC    ------- -----
CAN_ITConfig . . . . . . . . . . . . .  EXTERN  CODE    PROC    ------- -----
CAN_ST7CompatibilityCmd. . . . . . . .  EXTERN  CODE    PROC    ------- -----
CAN_Transmit . . . . . . . . . . . . .  EXTERN  CODE    PROC    ------- -----
CAN_TTComModeCmd . . . . . . . . . . .  EXTERN  CODE    PROC    ------- -----
CAN_TransmitStatus . . . . . . . . . .  EXTERN  CODE    PROC    ------- -----
CAN_CancelTransmit . . . . . . . . . .  EXTERN  CODE    PROC    ------- -----
CAN_FIFORelease. . . . . . . . . . . .  EXTERN  CODE    PROC    ------- -----
CAN_MessagePending . . . . . . . . . .  EXTERN  CODE    PROC    ------- -----
CAN_Receive. . . . . . . . . . . . . .  EXTERN  CODE    PROC    ------- -----
CAN_GetReceivedId. . . . . . . . . . .  EXTERN  CODE    PROC    ------- -----
CAN_GetReceivedIDE . . . . . . . . . .  EXTERN  CODE    PROC    ------- -----
CAN_GetReceivedRTR . . . . . . . . . .  EXTERN  CODE    PROC    ------- -----
CAN_GetReceivedDLC . . . . . . . . . .  EXTERN  CODE    PROC    ------- -----
CAN_GetReceivedData. . . . . . . . . .  EXTERN  CODE    PROC    ------- -----
CAN_GetReceivedFMI . . . . . . . . . .  EXTERN  CODE    PROC    ------- -----
CAN_GetMessageTimeStamp. . . . . . . .  EXTERN  CODE    PROC    ------- -----
CAN_Sleep. . . . . . . . . . . . . . .  EXTERN  CODE    PROC    ------- -----
CAN_WakeUp . . . . . . . . . . . . . .  EXTERN  CODE    PROC    ------- -----
CAN_OperatingModeRequest . . . . . . .  EXTERN  CODE    PROC    ------- -----
CAN_GetLastErrorCode . . . . . . . . .  EXTERN  CODE    PROC    ------- -----
CAN_GetSelectedPage. . . . . . . . . .  EXTERN  CODE    PROC    ------- -----
CAN_SelectPage . . . . . . . . . . . .  EXTERN  CODE    PROC    ------- -----
CAN_GetFlagStatus. . . . . . . . . . .  EXTERN  CODE    PROC    ------- -----
CAN_ClearFlag. . . . . . . . . . . . .  EXTERN  CODE    PROC    ------- -----
CAN_GetITStatus. . . . . . . . . . . .  EXTERN  CODE    PROC    ------- -----
CAN_ClearITPendingBit. . . . . . . . .  EXTERN  CODE    PROC    ------- -----
_Id. . . . . . . . . . . . . . . . . .  PUBLIC  DATA    BASE    000000H     4
_IDE . . . . . . . . . . . . . . . . .  PUBLIC  DATA    U_CHAR  000004H     1
_RTR . . . . . . . . . . . . . . . . .  PUBLIC  DATA    U_CHAR  000005H     1
_DLC . . . . . . . . . . . . . . . . .  PUBLIC  DATA    U_CHAR  000006H     1
_Data. . . . . . . . . . . . . . . . .  PUBLIC  DATA    ARRAY   000007H     8
_FMI . . . . . . . . . . . . . . . . .  PUBLIC  DATA    U_CHAR  00000FH     1
CheckITStatus. . . . . . . . . . . . .  STATIC  CODE    PROC    ------- -----
CAN_DeInit . . . . . . . . . . . . . .  PUBLIC  CODE    PROC    ------- -----
  InitStatus?286 . . . . . . . . . . . E_CONST  ----- INT      -------  2
  timeout?288. . . . . . . . . . . . .  PUBLIC  AUTO    U_INT   000000H     2
  can_page?290 . . . . . . . . . . . . E_CONST  ----- INT      -------  2
CAN_Init . . . . . . . . . . . . . . .  PUBLIC  CODE    PROC    ------- -----
 CAN_MasterCtrl?279. . . . . . . . . .  PARAM   AUTO    ENUM    000006H     2
 CAN_Mode?280. . . . . . . . . . . . .  PARAM   AUTO    ENUM    00000AH     2
 CAN_SynJumpWidth?281. . . . . . . . .  PARAM   AUTO    ENUM    00000CH     2
 CAN_BitSeg1?282 . . . . . . . . . . .  PARAM   AUTO    ENUM    00000EH     2
 CAN_BitSeg2?283 . . . . . . . . . . .  PARAM   AUTO    ENUM    000010H     2
 CAN_Prescaler?284 . . . . . . . . . .  PARAM   AUTO    U_CHAR  000012H     1
  InitStatus?286 . . . . . . . . . . . E_CONST  ----- INT      -------  2
  timeout?288. . . . . . . . . . . . .  PUBLIC  AUTO    U_INT   000002H     2
  can_page?290 . . . . . . . . . . . . E_CONST  ----- INT      -------  2
  fact?304 . . . . . . . . . . . . . .  PUBLIC  AUTO    U_CHAR  000000H     1
  fsc?306. . . . . . . . . . . . . . .  PUBLIC  AUTO    U_CHAR  000000H     1
  fmhl?308 . . . . . . . . . . . . . .  PUBLIC  AUTO    U_CHAR  000000H     1
  can_page_filter?310. . . . . . . . . E_CONST  ----- INT      -------  2
  can_page?312 . . . . . . . . . . . . E_CONST  ----- INT      -------  2
CAN_FilterInit . . . . . . . . . . . .  PUBLIC  CODE    PROC    ------- -----
 CAN_FilterNumber?291. . . . . . . . .  PARAM   AUTO    ENUM    000013H     2
 CAN_FilterActivation?292. . . . . . .  PARAM   AUTO    ENUM    000017H     2
 CAN_FilterMode?293. . . . . . . . . .  PARAM   AUTO    ENUM    000019H     2
 CAN_FilterScale?294 . . . . . . . . .  PARAM   AUTO    ENUM    00001BH     2
 CAN_FilterID1?295 . . . . . . . . . .  PARAM   AUTO    U_CHAR  00001DH     1
 CAN_FilterID2?296 . . . . . . . . . .  PARAM   AUTO    U_CHAR  00001EH     1
 CAN_FilterID3?297 . . . . . . . . . .  PARAM   AUTO    U_CHAR  00001FH     1
 CAN_FilterID4?298 . . . . . . . . . .  PARAM   AUTO    U_CHAR  000020H     1
 CAN_FilterIDMask1?299 . . . . . . . .  PARAM   AUTO    U_CHAR  000021H     1
 CAN_FilterIDMask2?300 . . . . . . . .  PARAM   AUTO    U_CHAR  000022H     1
 CAN_FilterIDMask3?301 . . . . . . . .  PARAM   AUTO    U_CHAR  000023H     1
 CAN_FilterIDMask4?302 . . . . . . . .  PARAM   AUTO    U_CHAR  000024H     1
  fact?304 . . . . . . . . . . . . . .  PUBLIC  AUTO    U_CHAR  000000H     1
  fsc?306. . . . . . . . . . . . . . .  PUBLIC  AUTO    U_CHAR  000001H     1
  fmhl?308 . . . . . . . . . . . . . .  PUBLIC  AUTO    U_CHAR  000002H     1
  can_page_filter?310. . . . . . . . . E_CONST  ----- INT      -------  2
  can_page?312 . . . . . . . . . . . . E_CONST  ----- INT      -------  2
  tmperrorinterrupt?316. . . . . . . .  PUBLIC  AUTO    U_CHAR  000000H     1
  can_page?318 . . . . . . . . . . . . E_CONST  ----- INT      -------  2
CAN_ITConfig . . . . . . . . . . . . .  PUBLIC  CODE    PROC    ------- -----
 CAN_IT?313. . . . . . . . . . . . . .  PARAM   AUTO    ENUM    000003H     2
 NewState?314. . . . . . . . . . . . .  PARAM   AUTO    ENUM    000007H     2
  tmperrorinterrupt?316. . . . . . . .  PUBLIC  AUTO    U_CHAR  000000H     1
  can_page?318 . . . . . . . . . . . . E_CONST  ----- INT      -------  2
CAN_ST7CompatibilityCmd. . . . . . . .  PUBLIC  CODE    PROC    ------- -----
 CAN_ST7Compatibility?319. . . . . . .  PARAM   AUTO    ENUM    000000H     2
  can_page?322 . . . . . . . . . . . . E_CONST  ----- INT      -------  2
CAN_TTComModeCmd . . . . . . . . . . .  PUBLIC  CODE    PROC    ------- -----
 NewState?320. . . . . . . . . . . . .  PARAM   AUTO    ENUM    000002H     2
  can_page?322 . . . . . . . . . . . . E_CONST  ----- INT      -------  2
  CAN_TxStatus?329 . . . . . . . . . . E_CONST  ----- INT      -------  2
  can_page?331 . . . . . . . . . . . . E_CONST  ----- INT      -------  2
CAN_Transmit . . . . . . . . . . . . .  PUBLIC  CODE    PROC    ------- -----
 CAN_Id?323. . . . . . . . . . . . . .  PARAM   AUTO    BASE    000006H     4
 CAN_IDE?324 . . . . . . . . . . . . .  PARAM   AUTO    ENUM    00000AH     2
 CAN_RTR?325 . . . . . . . . . . . . .  PARAM   AUTO    ENUM    00000CH     2
 CAN_DLC?326 . . . . . . . . . . . . .  PARAM   AUTO    U_CHAR  00000EH     1
 CAN_Data?327. . . . . . . . . . . . .  PARAM   AUTO    PTR     00000FH     2
  CAN_TxStatus?329 . . . . . . . . . . E_CONST  ----- INT      -------  2
  can_page?331 . . . . . . . . . . . . E_CONST  ----- INT      -------  2
  tstate?334 . . . . . . . . . . . . . E_CONST  ----- INT      -------  2
  tmpstate?336 . . . . . . . . . . . .  PUBLIC  AUTO    U_CHAR  000000H     1
CAN_TransmitStatus . . . . . . . . . .  PUBLIC  CODE    PROC    ------- -----
 CAN_TransmitMailbox?332 . . . . . . .  PARAM   AUTO    ENUM    000003H     2
  tstate?334 . . . . . . . . . . . . . E_CONST  ----- INT      -------  2
  tmpstate?336 . . . . . . . . . . . .  PUBLIC  AUTO    U_CHAR  000002H     1
  can_page?339 . . . . . . . . . . . . E_CONST  ----- INT      -------  2
CAN_CancelTransmit . . . . . . . . . .  PUBLIC  CODE    PROC    ------- -----
 CAN_TransmitMailbox?337 . . . . . . .  PARAM   AUTO    ENUM    000002H     2
  can_page?339 . . . . . . . . . . . . E_CONST  ----- INT      -------  2
CAN_FIFORelease. . . . . . . . . . . .  PUBLIC  CODE    PROC    ------- -----
  msgpending?345 . . . . . . . . . . . E_CONST  ----- INT      -------  2
CAN_MessagePending . . . . . . . . . .  PUBLIC  CODE    PROC    ------- -----
  msgpending?345 . . . . . . . . . . . E_CONST  ----- INT      -------  2
  can_page?349 . . . . . . . . . . . . E_CONST  ----- INT      -------  2
  temp1?351. . . . . . . . . . . . . .  PUBLIC  AUTO    BASE    000000H     4
  temp2?353. . . . . . . . . . . . . .  PUBLIC  AUTO    BASE    000000H     4
  temp3?355. . . . . . . . . . . . . .  PUBLIC  AUTO    BASE    000000H     4
CAN_Receive. . . . . . . . . . . . . .  PUBLIC  CODE    PROC    ------- -----
  can_page?349 . . . . . . . . . . . . E_CONST  ----- INT      -------  2
  temp1?351. . . . . . . . . . . . . .  PUBLIC  AUTO    BASE    000002H     4
  temp2?353. . . . . . . . . . . . . .  PUBLIC  AUTO    BASE    000006H     4
  temp3?355. . . . . . . . . . . . . .  PUBLIC  AUTO    BASE    00000AH     4
CAN_GetReceivedId. . . . . . . . . . .  PUBLIC  CODE    PROC    ------- -----
CAN_GetReceivedIDE . . . . . . . . . .  PUBLIC  CODE    PROC    ------- -----
CAN_GetReceivedRTR . . . . . . . . . .  PUBLIC  CODE    PROC    ------- -----
CAN_GetReceivedDLC . . . . . . . . . .  PUBLIC  CODE    PROC    ------- -----
CAN_GetReceivedData. . . . . . . . . .  PUBLIC  CODE    PROC    ------- -----
 CAN_DataIndex?364 . . . . . . . . . .  PARAM   AUTO    U_CHAR  000000H     1
CAN_GetReceivedFMI . . . . . . . . . .  PUBLIC  CODE    PROC    ------- -----
  timestamp?370. . . . . . . . . . . .  PUBLIC  AUTO    U_INT   000000H     2
  can_page?372 . . . . . . . . . . . . E_CONST  ----- INT      -------  2
CAN_GetMessageTimeStamp. . . . . . . .  PUBLIC  CODE    PROC    ------- -----
  timestamp?370. . . . . . . . . . . .  PUBLIC  AUTO    U_INT   000000H     2
  can_page?372 . . . . . . . . . . . . E_CONST  ----- INT      -------  2
  sleepstatus?376. . . . . . . . . . . E_CONST  ----- INT      -------  2
CAN_Sleep. . . . . . . . . . . . . . .  PUBLIC  CODE    PROC    ------- -----
  sleepstatus?376. . . . . . . . . . . E_CONST  ----- INT      -------  2
  wakeupstatus?380 . . . . . . . . . . E_CONST  ----- INT      -------  2
CAN_WakeUp . . . . . . . . . . . . . .  PUBLIC  CODE    PROC    ------- -----
  wakeupstatus?380 . . . . . . . . . . E_CONST  ----- INT      -------  2
  timeout?383. . . . . . . . . . . . .  PUBLIC  AUTO    U_INT   000000H     2
  modestatus?385 . . . . . . . . . . .  PUBLIC  AUTO    U_CHAR  000000H     1
CAN_OperatingModeRequest . . . . . . .  PUBLIC  CODE    PROC    ------- -----
 CAN_OperatingMode?381 . . . . . . . .  PARAM   AUTO    ENUM    000003H     2
  timeout?383. . . . . . . . . . . . .  PUBLIC  AUTO    U_INT   000000H     2
  modestatus?385 . . . . . . . . . . .  PUBLIC  AUTO    U_CHAR  000002H     1
  errcode?389. . . . . . . . . . . . . E_CONST  ----- INT      -------  2
  can_page?391 . . . . . . . . . . . . E_CONST  ----- INT      -------  2
CAN_GetLastErrorCode . . . . . . . . .  PUBLIC  CODE    PROC    ------- -----
  errcode?389. . . . . . . . . . . . . E_CONST  ----- INT      -------  2
  can_page?391 . . . . . . . . . . . . E_CONST  ----- INT      -------  2
  can_page?394 . . . . . . . . . . . . E_CONST  ----- INT      -------  2
CAN_ClearFlag. . . . . . . . . . . . .  PUBLIC  CODE    PROC    ------- -----
 CAN_Flag?392. . . . . . . . . . . . .  PARAM   AUTO    ENUM    000002H     2
  can_page?394 . . . . . . . . . . . . E_CONST  ----- INT      -------  2
  bitstatus?397. . . . . . . . . . . . E_CONST  ----- INT      -------  2
  can_page?399 . . . . . . . . . . . . E_CONST  ----- INT      -------  2
CAN_GetFlagStatus. . . . . . . . . . .  PUBLIC  CODE    PROC    ------- -----
 CAN_Flag?395. . . . . . . . . . . . .  PARAM   AUTO    ENUM    000004H     2
  bitstatus?397. . . . . . . . . . . . E_CONST  ----- INT      -------  2
  can_page?399 . . . . . . . . . . . . E_CONST  ----- INT      -------  2
  pendingbitstatus?402 . . . . . . . . E_CONST  ----- INT      -------  2
  can_page?404 . . . . . . . . . . . . E_CONST  ----- INT      -------  2
CAN_GetITStatus. . . . . . . . . . . .  PUBLIC  CODE    PROC    ------- -----
 CAN_IT?400. . . . . . . . . . . . . .  PARAM   AUTO    ENUM    000004H     2
  pendingbitstatus?402 . . . . . . . . E_CONST  ----- INT      -------  2
  can_page?404 . . . . . . . . . . . . E_CONST  ----- INT      -------  2
  can_page?407 . . . . . . . . . . . . E_CONST  ----- INT      -------  2
CAN_ClearITPendingBit. . . . . . . . .  PUBLIC  CODE    PROC    ------- -----
 CAN_IT?405. . . . . . . . . . . . . .  PARAM   AUTO    ENUM    000002H     2
  can_page?407 . . . . . . . . . . . . E_CONST  ----- INT      -------  2
CAN_GetSelectedPage. . . . . . . . . .  PUBLIC  CODE    PROC    ------- -----
CAN_SelectPage . . . . . . . . . . . .  PUBLIC  CODE    PROC    ------- -----
 CAN_Page?410. . . . . . . . . . . . .  PARAM   PAGE0   ENUM    000000H     2
  pendingbitstatus?414 . . . . . . . . E_CONST  ----- INT      -------  2
CheckITStatus. . . . . . . . . . . . .  STATIC  CODE    PROC    ------- -----
 CAN_Reg?411 . . . . . . . . . . . . .  PARAM   AUTO    U_CHAR  000002H     1
 It_Bit?412. . . . . . . . . . . . . .  PARAM   AUTO    U_CHAR  000005H     1
  pendingbitstatus?414 . . . . . . . . E_CONST  ----- INT      -------  2
assert_failed. . . . . . . . . . . . .  EXTERN  CODE    PROC    ------- -----
?BH. . . . . . . . . . . . . . . . . .  EXTERN  PAGE0   U_CHAR  ------- -----
?BL. . . . . . . . . . . . . . . . . .  EXTERN  PAGE0   U_CHAR  ------- -----
?CH. . . . . . . . . . . . . . . . . .  EXTERN  PAGE0   U_CHAR  ------- -----
?CL. . . . . . . . . . . . . . . . . .  EXTERN  PAGE0   U_CHAR  ------- -----
RCSTM8 COMPILER V2.44.12.199


MODULE INFORMATION:   STATIC OVERLAYABLE
   CODE SIZE        =   3920    ----
   CONSTANT SIZE    =     61    ----
   DATA SIZE        =     16    ----
   PAGE0 SIZE       =   ----    ----
   BIT SIZE         =   ----    ----
END OF MODULE INFORMATION.

RCSTM8 COMPILATION COMPLETE.  0 WARNING,  0 ERROR
